
LED_controller.elf:     file format elf32-littlearm

Sections:
Idx Name          Size      VMA       LMA       File off  Algn
  0 .isr_vector   000000c0  08000000  08000000  00010000  2**0
                  CONTENTS, ALLOC, LOAD, READONLY, DATA
  1 .text         00002238  080000c0  080000c0  000100c0  2**2
                  CONTENTS, ALLOC, LOAD, READONLY, CODE
  2 .rodata       000000b8  080022f8  080022f8  000122f8  2**2
                  CONTENTS, ALLOC, LOAD, READONLY, DATA
  3 .init_array   00000004  080023b0  080023b0  000123b0  2**2
                  CONTENTS, ALLOC, LOAD, DATA
  4 .fini_array   00000004  080023b4  080023b4  000123b4  2**2
                  CONTENTS, ALLOC, LOAD, DATA
  5 .data         00000000  20000000  20000000  000123b8  2**0
                  CONTENTS, ALLOC, LOAD, DATA
  6 .bss          00000020  20000000  080023b8  00020000  2**2
                  ALLOC
  7 ._user_heap_stack 00000080  20000020  080023b8  00020020  2**0
                  ALLOC
  8 .ARM.attributes 00000028  00000000  00000000  000123b8  2**0
                  CONTENTS, READONLY
  9 .debug_info   000010ef  00000000  00000000  000123e0  2**0
                  CONTENTS, READONLY, DEBUGGING
 10 .debug_abbrev 00000693  00000000  00000000  000134cf  2**0
                  CONTENTS, READONLY, DEBUGGING
 11 .debug_aranges 00000168  00000000  00000000  00013b68  2**3
                  CONTENTS, READONLY, DEBUGGING
 12 .debug_ranges 00000100  00000000  00000000  00013cd0  2**3
                  CONTENTS, READONLY, DEBUGGING
 13 .debug_line   00000bb4  00000000  00000000  00013dd0  2**0
                  CONTENTS, READONLY, DEBUGGING
 14 .debug_str    000004cb  00000000  00000000  00014984  2**0
                  CONTENTS, READONLY, DEBUGGING
 15 .comment      0000007c  00000000  00000000  00014e4f  2**0
                  CONTENTS, READONLY
 16 .debug_frame  00000530  00000000  00000000  00014ecc  2**2
                  CONTENTS, READONLY, DEBUGGING
 17 .stabstr      0000003f  00000000  00000000  000153fc  2**0
                  CONTENTS, READONLY, DEBUGGING

Disassembly of section .text:

080000c0 <__do_global_dtors_aux>:
 80000c0:	b510      	push	{r4, lr}
 80000c2:	4c06      	ldr	r4, [pc, #24]	; (80000dc <__do_global_dtors_aux+0x1c>)
 80000c4:	7823      	ldrb	r3, [r4, #0]
 80000c6:	2b00      	cmp	r3, #0
 80000c8:	d107      	bne.n	80000da <__do_global_dtors_aux+0x1a>
 80000ca:	4b05      	ldr	r3, [pc, #20]	; (80000e0 <__do_global_dtors_aux+0x20>)
 80000cc:	2b00      	cmp	r3, #0
 80000ce:	d002      	beq.n	80000d6 <__do_global_dtors_aux+0x16>
 80000d0:	4804      	ldr	r0, [pc, #16]	; (80000e4 <__do_global_dtors_aux+0x24>)
 80000d2:	e000      	b.n	80000d6 <__do_global_dtors_aux+0x16>
 80000d4:	bf00      	nop
 80000d6:	2301      	movs	r3, #1
 80000d8:	7023      	strb	r3, [r4, #0]
 80000da:	bd10      	pop	{r4, pc}
 80000dc:	20000000 	.word	0x20000000
 80000e0:	00000000 	.word	0x00000000
 80000e4:	080022e0 	.word	0x080022e0

080000e8 <frame_dummy>:
 80000e8:	4b04      	ldr	r3, [pc, #16]	; (80000fc <frame_dummy+0x14>)
 80000ea:	b510      	push	{r4, lr}
 80000ec:	2b00      	cmp	r3, #0
 80000ee:	d003      	beq.n	80000f8 <frame_dummy+0x10>
 80000f0:	4903      	ldr	r1, [pc, #12]	; (8000100 <frame_dummy+0x18>)
 80000f2:	4804      	ldr	r0, [pc, #16]	; (8000104 <frame_dummy+0x1c>)
 80000f4:	e000      	b.n	80000f8 <frame_dummy+0x10>
 80000f6:	bf00      	nop
 80000f8:	bd10      	pop	{r4, pc}
 80000fa:	46c0      	nop			; (mov r8, r8)
 80000fc:	00000000 	.word	0x00000000
 8000100:	20000004 	.word	0x20000004
 8000104:	080022e0 	.word	0x080022e0

08000108 <__udivsi3>:
 8000108:	2200      	movs	r2, #0
 800010a:	0843      	lsrs	r3, r0, #1
 800010c:	428b      	cmp	r3, r1
 800010e:	d374      	bcc.n	80001fa <__udivsi3+0xf2>
 8000110:	0903      	lsrs	r3, r0, #4
 8000112:	428b      	cmp	r3, r1
 8000114:	d35f      	bcc.n	80001d6 <__udivsi3+0xce>
 8000116:	0a03      	lsrs	r3, r0, #8
 8000118:	428b      	cmp	r3, r1
 800011a:	d344      	bcc.n	80001a6 <__udivsi3+0x9e>
 800011c:	0b03      	lsrs	r3, r0, #12
 800011e:	428b      	cmp	r3, r1
 8000120:	d328      	bcc.n	8000174 <__udivsi3+0x6c>
 8000122:	0c03      	lsrs	r3, r0, #16
 8000124:	428b      	cmp	r3, r1
 8000126:	d30d      	bcc.n	8000144 <__udivsi3+0x3c>
 8000128:	22ff      	movs	r2, #255	; 0xff
 800012a:	0209      	lsls	r1, r1, #8
 800012c:	ba12      	rev	r2, r2
 800012e:	0c03      	lsrs	r3, r0, #16
 8000130:	428b      	cmp	r3, r1
 8000132:	d302      	bcc.n	800013a <__udivsi3+0x32>
 8000134:	1212      	asrs	r2, r2, #8
 8000136:	0209      	lsls	r1, r1, #8
 8000138:	d065      	beq.n	8000206 <__udivsi3+0xfe>
 800013a:	0b03      	lsrs	r3, r0, #12
 800013c:	428b      	cmp	r3, r1
 800013e:	d319      	bcc.n	8000174 <__udivsi3+0x6c>
 8000140:	e000      	b.n	8000144 <__udivsi3+0x3c>
 8000142:	0a09      	lsrs	r1, r1, #8
 8000144:	0bc3      	lsrs	r3, r0, #15
 8000146:	428b      	cmp	r3, r1
 8000148:	d301      	bcc.n	800014e <__udivsi3+0x46>
 800014a:	03cb      	lsls	r3, r1, #15
 800014c:	1ac0      	subs	r0, r0, r3
 800014e:	4152      	adcs	r2, r2
 8000150:	0b83      	lsrs	r3, r0, #14
 8000152:	428b      	cmp	r3, r1
 8000154:	d301      	bcc.n	800015a <__udivsi3+0x52>
 8000156:	038b      	lsls	r3, r1, #14
 8000158:	1ac0      	subs	r0, r0, r3
 800015a:	4152      	adcs	r2, r2
 800015c:	0b43      	lsrs	r3, r0, #13
 800015e:	428b      	cmp	r3, r1
 8000160:	d301      	bcc.n	8000166 <__udivsi3+0x5e>
 8000162:	034b      	lsls	r3, r1, #13
 8000164:	1ac0      	subs	r0, r0, r3
 8000166:	4152      	adcs	r2, r2
 8000168:	0b03      	lsrs	r3, r0, #12
 800016a:	428b      	cmp	r3, r1
 800016c:	d301      	bcc.n	8000172 <__udivsi3+0x6a>
 800016e:	030b      	lsls	r3, r1, #12
 8000170:	1ac0      	subs	r0, r0, r3
 8000172:	4152      	adcs	r2, r2
 8000174:	0ac3      	lsrs	r3, r0, #11
 8000176:	428b      	cmp	r3, r1
 8000178:	d301      	bcc.n	800017e <__udivsi3+0x76>
 800017a:	02cb      	lsls	r3, r1, #11
 800017c:	1ac0      	subs	r0, r0, r3
 800017e:	4152      	adcs	r2, r2
 8000180:	0a83      	lsrs	r3, r0, #10
 8000182:	428b      	cmp	r3, r1
 8000184:	d301      	bcc.n	800018a <__udivsi3+0x82>
 8000186:	028b      	lsls	r3, r1, #10
 8000188:	1ac0      	subs	r0, r0, r3
 800018a:	4152      	adcs	r2, r2
 800018c:	0a43      	lsrs	r3, r0, #9
 800018e:	428b      	cmp	r3, r1
 8000190:	d301      	bcc.n	8000196 <__udivsi3+0x8e>
 8000192:	024b      	lsls	r3, r1, #9
 8000194:	1ac0      	subs	r0, r0, r3
 8000196:	4152      	adcs	r2, r2
 8000198:	0a03      	lsrs	r3, r0, #8
 800019a:	428b      	cmp	r3, r1
 800019c:	d301      	bcc.n	80001a2 <__udivsi3+0x9a>
 800019e:	020b      	lsls	r3, r1, #8
 80001a0:	1ac0      	subs	r0, r0, r3
 80001a2:	4152      	adcs	r2, r2
 80001a4:	d2cd      	bcs.n	8000142 <__udivsi3+0x3a>
 80001a6:	09c3      	lsrs	r3, r0, #7
 80001a8:	428b      	cmp	r3, r1
 80001aa:	d301      	bcc.n	80001b0 <__udivsi3+0xa8>
 80001ac:	01cb      	lsls	r3, r1, #7
 80001ae:	1ac0      	subs	r0, r0, r3
 80001b0:	4152      	adcs	r2, r2
 80001b2:	0983      	lsrs	r3, r0, #6
 80001b4:	428b      	cmp	r3, r1
 80001b6:	d301      	bcc.n	80001bc <__udivsi3+0xb4>
 80001b8:	018b      	lsls	r3, r1, #6
 80001ba:	1ac0      	subs	r0, r0, r3
 80001bc:	4152      	adcs	r2, r2
 80001be:	0943      	lsrs	r3, r0, #5
 80001c0:	428b      	cmp	r3, r1
 80001c2:	d301      	bcc.n	80001c8 <__udivsi3+0xc0>
 80001c4:	014b      	lsls	r3, r1, #5
 80001c6:	1ac0      	subs	r0, r0, r3
 80001c8:	4152      	adcs	r2, r2
 80001ca:	0903      	lsrs	r3, r0, #4
 80001cc:	428b      	cmp	r3, r1
 80001ce:	d301      	bcc.n	80001d4 <__udivsi3+0xcc>
 80001d0:	010b      	lsls	r3, r1, #4
 80001d2:	1ac0      	subs	r0, r0, r3
 80001d4:	4152      	adcs	r2, r2
 80001d6:	08c3      	lsrs	r3, r0, #3
 80001d8:	428b      	cmp	r3, r1
 80001da:	d301      	bcc.n	80001e0 <__udivsi3+0xd8>
 80001dc:	00cb      	lsls	r3, r1, #3
 80001de:	1ac0      	subs	r0, r0, r3
 80001e0:	4152      	adcs	r2, r2
 80001e2:	0883      	lsrs	r3, r0, #2
 80001e4:	428b      	cmp	r3, r1
 80001e6:	d301      	bcc.n	80001ec <__udivsi3+0xe4>
 80001e8:	008b      	lsls	r3, r1, #2
 80001ea:	1ac0      	subs	r0, r0, r3
 80001ec:	4152      	adcs	r2, r2
 80001ee:	0843      	lsrs	r3, r0, #1
 80001f0:	428b      	cmp	r3, r1
 80001f2:	d301      	bcc.n	80001f8 <__udivsi3+0xf0>
 80001f4:	004b      	lsls	r3, r1, #1
 80001f6:	1ac0      	subs	r0, r0, r3
 80001f8:	4152      	adcs	r2, r2
 80001fa:	1a41      	subs	r1, r0, r1
 80001fc:	d200      	bcs.n	8000200 <__udivsi3+0xf8>
 80001fe:	4601      	mov	r1, r0
 8000200:	4152      	adcs	r2, r2
 8000202:	4610      	mov	r0, r2
 8000204:	4770      	bx	lr
 8000206:	e7ff      	b.n	8000208 <__udivsi3+0x100>
 8000208:	b501      	push	{r0, lr}
 800020a:	2000      	movs	r0, #0
 800020c:	f000 f806 	bl	800021c <__aeabi_idiv0>
 8000210:	bd02      	pop	{r1, pc}
 8000212:	46c0      	nop			; (mov r8, r8)

08000214 <__aeabi_uidivmod>:
 8000214:	2900      	cmp	r1, #0
 8000216:	d0f7      	beq.n	8000208 <__udivsi3+0x100>
 8000218:	e776      	b.n	8000108 <__udivsi3>
 800021a:	4770      	bx	lr

0800021c <__aeabi_idiv0>:
 800021c:	4770      	bx	lr
 800021e:	46c0      	nop			; (mov r8, r8)

08000220 <__aeabi_d2uiz>:
 8000220:	b570      	push	{r4, r5, r6, lr}
 8000222:	2200      	movs	r2, #0
 8000224:	4b0c      	ldr	r3, [pc, #48]	; (8000258 <__aeabi_d2uiz+0x38>)
 8000226:	0004      	movs	r4, r0
 8000228:	000d      	movs	r5, r1
 800022a:	f001 fa1b 	bl	8001664 <__aeabi_dcmpge>
 800022e:	2800      	cmp	r0, #0
 8000230:	d104      	bne.n	800023c <__aeabi_d2uiz+0x1c>
 8000232:	0020      	movs	r0, r4
 8000234:	0029      	movs	r1, r5
 8000236:	f001 f96b 	bl	8001510 <__aeabi_d2iz>
 800023a:	bd70      	pop	{r4, r5, r6, pc}
 800023c:	4b06      	ldr	r3, [pc, #24]	; (8000258 <__aeabi_d2uiz+0x38>)
 800023e:	2200      	movs	r2, #0
 8000240:	0020      	movs	r0, r4
 8000242:	0029      	movs	r1, r5
 8000244:	f000 fe4e 	bl	8000ee4 <__aeabi_dsub>
 8000248:	f001 f962 	bl	8001510 <__aeabi_d2iz>
 800024c:	2380      	movs	r3, #128	; 0x80
 800024e:	061b      	lsls	r3, r3, #24
 8000250:	469c      	mov	ip, r3
 8000252:	4460      	add	r0, ip
 8000254:	e7f1      	b.n	800023a <__aeabi_d2uiz+0x1a>
 8000256:	46c0      	nop			; (mov r8, r8)
 8000258:	41e00000 	.word	0x41e00000

0800025c <__aeabi_dadd>:
 800025c:	b5f8      	push	{r3, r4, r5, r6, r7, lr}
 800025e:	4645      	mov	r5, r8
 8000260:	46de      	mov	lr, fp
 8000262:	4657      	mov	r7, sl
 8000264:	464e      	mov	r6, r9
 8000266:	030c      	lsls	r4, r1, #12
 8000268:	b5e0      	push	{r5, r6, r7, lr}
 800026a:	004e      	lsls	r6, r1, #1
 800026c:	0fc9      	lsrs	r1, r1, #31
 800026e:	4688      	mov	r8, r1
 8000270:	000d      	movs	r5, r1
 8000272:	0a61      	lsrs	r1, r4, #9
 8000274:	0f44      	lsrs	r4, r0, #29
 8000276:	430c      	orrs	r4, r1
 8000278:	00c7      	lsls	r7, r0, #3
 800027a:	0319      	lsls	r1, r3, #12
 800027c:	0058      	lsls	r0, r3, #1
 800027e:	0fdb      	lsrs	r3, r3, #31
 8000280:	469b      	mov	fp, r3
 8000282:	0a4b      	lsrs	r3, r1, #9
 8000284:	0f51      	lsrs	r1, r2, #29
 8000286:	430b      	orrs	r3, r1
 8000288:	0d76      	lsrs	r6, r6, #21
 800028a:	0d40      	lsrs	r0, r0, #21
 800028c:	0019      	movs	r1, r3
 800028e:	00d2      	lsls	r2, r2, #3
 8000290:	45d8      	cmp	r8, fp
 8000292:	d100      	bne.n	8000296 <__aeabi_dadd+0x3a>
 8000294:	e0ae      	b.n	80003f4 <__aeabi_dadd+0x198>
 8000296:	1a35      	subs	r5, r6, r0
 8000298:	2d00      	cmp	r5, #0
 800029a:	dc00      	bgt.n	800029e <__aeabi_dadd+0x42>
 800029c:	e0f6      	b.n	800048c <__aeabi_dadd+0x230>
 800029e:	2800      	cmp	r0, #0
 80002a0:	d10f      	bne.n	80002c2 <__aeabi_dadd+0x66>
 80002a2:	4313      	orrs	r3, r2
 80002a4:	d100      	bne.n	80002a8 <__aeabi_dadd+0x4c>
 80002a6:	e0db      	b.n	8000460 <__aeabi_dadd+0x204>
 80002a8:	1e6b      	subs	r3, r5, #1
 80002aa:	2b00      	cmp	r3, #0
 80002ac:	d000      	beq.n	80002b0 <__aeabi_dadd+0x54>
 80002ae:	e137      	b.n	8000520 <__aeabi_dadd+0x2c4>
 80002b0:	1aba      	subs	r2, r7, r2
 80002b2:	4297      	cmp	r7, r2
 80002b4:	41bf      	sbcs	r7, r7
 80002b6:	1a64      	subs	r4, r4, r1
 80002b8:	427f      	negs	r7, r7
 80002ba:	1be4      	subs	r4, r4, r7
 80002bc:	2601      	movs	r6, #1
 80002be:	0017      	movs	r7, r2
 80002c0:	e024      	b.n	800030c <__aeabi_dadd+0xb0>
 80002c2:	4bc6      	ldr	r3, [pc, #792]	; (80005dc <__aeabi_dadd+0x380>)
 80002c4:	429e      	cmp	r6, r3
 80002c6:	d04d      	beq.n	8000364 <__aeabi_dadd+0x108>
 80002c8:	2380      	movs	r3, #128	; 0x80
 80002ca:	041b      	lsls	r3, r3, #16
 80002cc:	4319      	orrs	r1, r3
 80002ce:	2d38      	cmp	r5, #56	; 0x38
 80002d0:	dd00      	ble.n	80002d4 <__aeabi_dadd+0x78>
 80002d2:	e107      	b.n	80004e4 <__aeabi_dadd+0x288>
 80002d4:	2d1f      	cmp	r5, #31
 80002d6:	dd00      	ble.n	80002da <__aeabi_dadd+0x7e>
 80002d8:	e138      	b.n	800054c <__aeabi_dadd+0x2f0>
 80002da:	2020      	movs	r0, #32
 80002dc:	1b43      	subs	r3, r0, r5
 80002de:	469a      	mov	sl, r3
 80002e0:	000b      	movs	r3, r1
 80002e2:	4650      	mov	r0, sl
 80002e4:	4083      	lsls	r3, r0
 80002e6:	4699      	mov	r9, r3
 80002e8:	0013      	movs	r3, r2
 80002ea:	4648      	mov	r0, r9
 80002ec:	40eb      	lsrs	r3, r5
 80002ee:	4318      	orrs	r0, r3
 80002f0:	0003      	movs	r3, r0
 80002f2:	4650      	mov	r0, sl
 80002f4:	4082      	lsls	r2, r0
 80002f6:	1e50      	subs	r0, r2, #1
 80002f8:	4182      	sbcs	r2, r0
 80002fa:	40e9      	lsrs	r1, r5
 80002fc:	431a      	orrs	r2, r3
 80002fe:	1aba      	subs	r2, r7, r2
 8000300:	1a61      	subs	r1, r4, r1
 8000302:	4297      	cmp	r7, r2
 8000304:	41a4      	sbcs	r4, r4
 8000306:	0017      	movs	r7, r2
 8000308:	4264      	negs	r4, r4
 800030a:	1b0c      	subs	r4, r1, r4
 800030c:	0223      	lsls	r3, r4, #8
 800030e:	d562      	bpl.n	80003d6 <__aeabi_dadd+0x17a>
 8000310:	0264      	lsls	r4, r4, #9
 8000312:	0a65      	lsrs	r5, r4, #9
 8000314:	2d00      	cmp	r5, #0
 8000316:	d100      	bne.n	800031a <__aeabi_dadd+0xbe>
 8000318:	e0df      	b.n	80004da <__aeabi_dadd+0x27e>
 800031a:	0028      	movs	r0, r5
 800031c:	f001 f9ac 	bl	8001678 <__clzsi2>
 8000320:	0003      	movs	r3, r0
 8000322:	3b08      	subs	r3, #8
 8000324:	2b1f      	cmp	r3, #31
 8000326:	dd00      	ble.n	800032a <__aeabi_dadd+0xce>
 8000328:	e0d2      	b.n	80004d0 <__aeabi_dadd+0x274>
 800032a:	2220      	movs	r2, #32
 800032c:	003c      	movs	r4, r7
 800032e:	1ad2      	subs	r2, r2, r3
 8000330:	409d      	lsls	r5, r3
 8000332:	40d4      	lsrs	r4, r2
 8000334:	409f      	lsls	r7, r3
 8000336:	4325      	orrs	r5, r4
 8000338:	429e      	cmp	r6, r3
 800033a:	dd00      	ble.n	800033e <__aeabi_dadd+0xe2>
 800033c:	e0c4      	b.n	80004c8 <__aeabi_dadd+0x26c>
 800033e:	1b9e      	subs	r6, r3, r6
 8000340:	1c73      	adds	r3, r6, #1
 8000342:	2b1f      	cmp	r3, #31
 8000344:	dd00      	ble.n	8000348 <__aeabi_dadd+0xec>
 8000346:	e0f1      	b.n	800052c <__aeabi_dadd+0x2d0>
 8000348:	2220      	movs	r2, #32
 800034a:	0038      	movs	r0, r7
 800034c:	0029      	movs	r1, r5
 800034e:	1ad2      	subs	r2, r2, r3
 8000350:	40d8      	lsrs	r0, r3
 8000352:	4091      	lsls	r1, r2
 8000354:	4097      	lsls	r7, r2
 8000356:	002c      	movs	r4, r5
 8000358:	4301      	orrs	r1, r0
 800035a:	1e78      	subs	r0, r7, #1
 800035c:	4187      	sbcs	r7, r0
 800035e:	40dc      	lsrs	r4, r3
 8000360:	2600      	movs	r6, #0
 8000362:	430f      	orrs	r7, r1
 8000364:	077b      	lsls	r3, r7, #29
 8000366:	d009      	beq.n	800037c <__aeabi_dadd+0x120>
 8000368:	230f      	movs	r3, #15
 800036a:	403b      	ands	r3, r7
 800036c:	2b04      	cmp	r3, #4
 800036e:	d005      	beq.n	800037c <__aeabi_dadd+0x120>
 8000370:	1d3b      	adds	r3, r7, #4
 8000372:	42bb      	cmp	r3, r7
 8000374:	41bf      	sbcs	r7, r7
 8000376:	427f      	negs	r7, r7
 8000378:	19e4      	adds	r4, r4, r7
 800037a:	001f      	movs	r7, r3
 800037c:	0223      	lsls	r3, r4, #8
 800037e:	d52c      	bpl.n	80003da <__aeabi_dadd+0x17e>
 8000380:	4b96      	ldr	r3, [pc, #600]	; (80005dc <__aeabi_dadd+0x380>)
 8000382:	3601      	adds	r6, #1
 8000384:	429e      	cmp	r6, r3
 8000386:	d100      	bne.n	800038a <__aeabi_dadd+0x12e>
 8000388:	e09a      	b.n	80004c0 <__aeabi_dadd+0x264>
 800038a:	4645      	mov	r5, r8
 800038c:	4b94      	ldr	r3, [pc, #592]	; (80005e0 <__aeabi_dadd+0x384>)
 800038e:	08ff      	lsrs	r7, r7, #3
 8000390:	401c      	ands	r4, r3
 8000392:	0760      	lsls	r0, r4, #29
 8000394:	0576      	lsls	r6, r6, #21
 8000396:	0264      	lsls	r4, r4, #9
 8000398:	4307      	orrs	r7, r0
 800039a:	0b24      	lsrs	r4, r4, #12
 800039c:	0d76      	lsrs	r6, r6, #21
 800039e:	2100      	movs	r1, #0
 80003a0:	0324      	lsls	r4, r4, #12
 80003a2:	0b23      	lsrs	r3, r4, #12
 80003a4:	0d0c      	lsrs	r4, r1, #20
 80003a6:	4a8f      	ldr	r2, [pc, #572]	; (80005e4 <__aeabi_dadd+0x388>)
 80003a8:	0524      	lsls	r4, r4, #20
 80003aa:	431c      	orrs	r4, r3
 80003ac:	4014      	ands	r4, r2
 80003ae:	0533      	lsls	r3, r6, #20
 80003b0:	4323      	orrs	r3, r4
 80003b2:	005b      	lsls	r3, r3, #1
 80003b4:	07ed      	lsls	r5, r5, #31
 80003b6:	085b      	lsrs	r3, r3, #1
 80003b8:	432b      	orrs	r3, r5
 80003ba:	0038      	movs	r0, r7
 80003bc:	0019      	movs	r1, r3
 80003be:	bc3c      	pop	{r2, r3, r4, r5}
 80003c0:	4690      	mov	r8, r2
 80003c2:	4699      	mov	r9, r3
 80003c4:	46a2      	mov	sl, r4
 80003c6:	46ab      	mov	fp, r5
 80003c8:	bdf8      	pop	{r3, r4, r5, r6, r7, pc}
 80003ca:	4664      	mov	r4, ip
 80003cc:	4304      	orrs	r4, r0
 80003ce:	d100      	bne.n	80003d2 <__aeabi_dadd+0x176>
 80003d0:	e211      	b.n	80007f6 <__aeabi_dadd+0x59a>
 80003d2:	0004      	movs	r4, r0
 80003d4:	4667      	mov	r7, ip
 80003d6:	077b      	lsls	r3, r7, #29
 80003d8:	d1c6      	bne.n	8000368 <__aeabi_dadd+0x10c>
 80003da:	4645      	mov	r5, r8
 80003dc:	0760      	lsls	r0, r4, #29
 80003de:	08ff      	lsrs	r7, r7, #3
 80003e0:	4307      	orrs	r7, r0
 80003e2:	08e4      	lsrs	r4, r4, #3
 80003e4:	4b7d      	ldr	r3, [pc, #500]	; (80005dc <__aeabi_dadd+0x380>)
 80003e6:	429e      	cmp	r6, r3
 80003e8:	d030      	beq.n	800044c <__aeabi_dadd+0x1f0>
 80003ea:	0324      	lsls	r4, r4, #12
 80003ec:	0576      	lsls	r6, r6, #21
 80003ee:	0b24      	lsrs	r4, r4, #12
 80003f0:	0d76      	lsrs	r6, r6, #21
 80003f2:	e7d4      	b.n	800039e <__aeabi_dadd+0x142>
 80003f4:	1a33      	subs	r3, r6, r0
 80003f6:	469a      	mov	sl, r3
 80003f8:	2b00      	cmp	r3, #0
 80003fa:	dd78      	ble.n	80004ee <__aeabi_dadd+0x292>
 80003fc:	2800      	cmp	r0, #0
 80003fe:	d031      	beq.n	8000464 <__aeabi_dadd+0x208>
 8000400:	4876      	ldr	r0, [pc, #472]	; (80005dc <__aeabi_dadd+0x380>)
 8000402:	4286      	cmp	r6, r0
 8000404:	d0ae      	beq.n	8000364 <__aeabi_dadd+0x108>
 8000406:	2080      	movs	r0, #128	; 0x80
 8000408:	0400      	lsls	r0, r0, #16
 800040a:	4301      	orrs	r1, r0
 800040c:	4653      	mov	r3, sl
 800040e:	2b38      	cmp	r3, #56	; 0x38
 8000410:	dc00      	bgt.n	8000414 <__aeabi_dadd+0x1b8>
 8000412:	e0e9      	b.n	80005e8 <__aeabi_dadd+0x38c>
 8000414:	430a      	orrs	r2, r1
 8000416:	1e51      	subs	r1, r2, #1
 8000418:	418a      	sbcs	r2, r1
 800041a:	2100      	movs	r1, #0
 800041c:	19d2      	adds	r2, r2, r7
 800041e:	42ba      	cmp	r2, r7
 8000420:	41bf      	sbcs	r7, r7
 8000422:	1909      	adds	r1, r1, r4
 8000424:	427c      	negs	r4, r7
 8000426:	0017      	movs	r7, r2
 8000428:	190c      	adds	r4, r1, r4
 800042a:	0223      	lsls	r3, r4, #8
 800042c:	d5d3      	bpl.n	80003d6 <__aeabi_dadd+0x17a>
 800042e:	4b6b      	ldr	r3, [pc, #428]	; (80005dc <__aeabi_dadd+0x380>)
 8000430:	3601      	adds	r6, #1
 8000432:	429e      	cmp	r6, r3
 8000434:	d100      	bne.n	8000438 <__aeabi_dadd+0x1dc>
 8000436:	e13a      	b.n	80006ae <__aeabi_dadd+0x452>
 8000438:	2001      	movs	r0, #1
 800043a:	4b69      	ldr	r3, [pc, #420]	; (80005e0 <__aeabi_dadd+0x384>)
 800043c:	401c      	ands	r4, r3
 800043e:	087b      	lsrs	r3, r7, #1
 8000440:	4007      	ands	r7, r0
 8000442:	431f      	orrs	r7, r3
 8000444:	07e0      	lsls	r0, r4, #31
 8000446:	4307      	orrs	r7, r0
 8000448:	0864      	lsrs	r4, r4, #1
 800044a:	e78b      	b.n	8000364 <__aeabi_dadd+0x108>
 800044c:	0023      	movs	r3, r4
 800044e:	433b      	orrs	r3, r7
 8000450:	d100      	bne.n	8000454 <__aeabi_dadd+0x1f8>
 8000452:	e1cb      	b.n	80007ec <__aeabi_dadd+0x590>
 8000454:	2280      	movs	r2, #128	; 0x80
 8000456:	0312      	lsls	r2, r2, #12
 8000458:	4314      	orrs	r4, r2
 800045a:	0324      	lsls	r4, r4, #12
 800045c:	0b24      	lsrs	r4, r4, #12
 800045e:	e79e      	b.n	800039e <__aeabi_dadd+0x142>
 8000460:	002e      	movs	r6, r5
 8000462:	e77f      	b.n	8000364 <__aeabi_dadd+0x108>
 8000464:	0008      	movs	r0, r1
 8000466:	4310      	orrs	r0, r2
 8000468:	d100      	bne.n	800046c <__aeabi_dadd+0x210>
 800046a:	e0b4      	b.n	80005d6 <__aeabi_dadd+0x37a>
 800046c:	1e58      	subs	r0, r3, #1
 800046e:	2800      	cmp	r0, #0
 8000470:	d000      	beq.n	8000474 <__aeabi_dadd+0x218>
 8000472:	e0de      	b.n	8000632 <__aeabi_dadd+0x3d6>
 8000474:	18ba      	adds	r2, r7, r2
 8000476:	42ba      	cmp	r2, r7
 8000478:	419b      	sbcs	r3, r3
 800047a:	1864      	adds	r4, r4, r1
 800047c:	425b      	negs	r3, r3
 800047e:	18e4      	adds	r4, r4, r3
 8000480:	0017      	movs	r7, r2
 8000482:	2601      	movs	r6, #1
 8000484:	0223      	lsls	r3, r4, #8
 8000486:	d5a6      	bpl.n	80003d6 <__aeabi_dadd+0x17a>
 8000488:	2602      	movs	r6, #2
 800048a:	e7d5      	b.n	8000438 <__aeabi_dadd+0x1dc>
 800048c:	2d00      	cmp	r5, #0
 800048e:	d16e      	bne.n	800056e <__aeabi_dadd+0x312>
 8000490:	1c70      	adds	r0, r6, #1
 8000492:	0540      	lsls	r0, r0, #21
 8000494:	0d40      	lsrs	r0, r0, #21
 8000496:	2801      	cmp	r0, #1
 8000498:	dc00      	bgt.n	800049c <__aeabi_dadd+0x240>
 800049a:	e0f9      	b.n	8000690 <__aeabi_dadd+0x434>
 800049c:	1ab8      	subs	r0, r7, r2
 800049e:	4684      	mov	ip, r0
 80004a0:	4287      	cmp	r7, r0
 80004a2:	4180      	sbcs	r0, r0
 80004a4:	1ae5      	subs	r5, r4, r3
 80004a6:	4240      	negs	r0, r0
 80004a8:	1a2d      	subs	r5, r5, r0
 80004aa:	0228      	lsls	r0, r5, #8
 80004ac:	d400      	bmi.n	80004b0 <__aeabi_dadd+0x254>
 80004ae:	e089      	b.n	80005c4 <__aeabi_dadd+0x368>
 80004b0:	1bd7      	subs	r7, r2, r7
 80004b2:	42ba      	cmp	r2, r7
 80004b4:	4192      	sbcs	r2, r2
 80004b6:	1b1c      	subs	r4, r3, r4
 80004b8:	4252      	negs	r2, r2
 80004ba:	1aa5      	subs	r5, r4, r2
 80004bc:	46d8      	mov	r8, fp
 80004be:	e729      	b.n	8000314 <__aeabi_dadd+0xb8>
 80004c0:	4645      	mov	r5, r8
 80004c2:	2400      	movs	r4, #0
 80004c4:	2700      	movs	r7, #0
 80004c6:	e76a      	b.n	800039e <__aeabi_dadd+0x142>
 80004c8:	4c45      	ldr	r4, [pc, #276]	; (80005e0 <__aeabi_dadd+0x384>)
 80004ca:	1af6      	subs	r6, r6, r3
 80004cc:	402c      	ands	r4, r5
 80004ce:	e749      	b.n	8000364 <__aeabi_dadd+0x108>
 80004d0:	003d      	movs	r5, r7
 80004d2:	3828      	subs	r0, #40	; 0x28
 80004d4:	4085      	lsls	r5, r0
 80004d6:	2700      	movs	r7, #0
 80004d8:	e72e      	b.n	8000338 <__aeabi_dadd+0xdc>
 80004da:	0038      	movs	r0, r7
 80004dc:	f001 f8cc 	bl	8001678 <__clzsi2>
 80004e0:	3020      	adds	r0, #32
 80004e2:	e71d      	b.n	8000320 <__aeabi_dadd+0xc4>
 80004e4:	430a      	orrs	r2, r1
 80004e6:	1e51      	subs	r1, r2, #1
 80004e8:	418a      	sbcs	r2, r1
 80004ea:	2100      	movs	r1, #0
 80004ec:	e707      	b.n	80002fe <__aeabi_dadd+0xa2>
 80004ee:	2b00      	cmp	r3, #0
 80004f0:	d000      	beq.n	80004f4 <__aeabi_dadd+0x298>
 80004f2:	e0f3      	b.n	80006dc <__aeabi_dadd+0x480>
 80004f4:	1c70      	adds	r0, r6, #1
 80004f6:	0543      	lsls	r3, r0, #21
 80004f8:	0d5b      	lsrs	r3, r3, #21
 80004fa:	2b01      	cmp	r3, #1
 80004fc:	dc00      	bgt.n	8000500 <__aeabi_dadd+0x2a4>
 80004fe:	e0ad      	b.n	800065c <__aeabi_dadd+0x400>
 8000500:	4b36      	ldr	r3, [pc, #216]	; (80005dc <__aeabi_dadd+0x380>)
 8000502:	4298      	cmp	r0, r3
 8000504:	d100      	bne.n	8000508 <__aeabi_dadd+0x2ac>
 8000506:	e0d1      	b.n	80006ac <__aeabi_dadd+0x450>
 8000508:	18ba      	adds	r2, r7, r2
 800050a:	42ba      	cmp	r2, r7
 800050c:	41bf      	sbcs	r7, r7
 800050e:	1864      	adds	r4, r4, r1
 8000510:	427f      	negs	r7, r7
 8000512:	19e4      	adds	r4, r4, r7
 8000514:	07e7      	lsls	r7, r4, #31
 8000516:	0852      	lsrs	r2, r2, #1
 8000518:	4317      	orrs	r7, r2
 800051a:	0864      	lsrs	r4, r4, #1
 800051c:	0006      	movs	r6, r0
 800051e:	e721      	b.n	8000364 <__aeabi_dadd+0x108>
 8000520:	482e      	ldr	r0, [pc, #184]	; (80005dc <__aeabi_dadd+0x380>)
 8000522:	4285      	cmp	r5, r0
 8000524:	d100      	bne.n	8000528 <__aeabi_dadd+0x2cc>
 8000526:	e093      	b.n	8000650 <__aeabi_dadd+0x3f4>
 8000528:	001d      	movs	r5, r3
 800052a:	e6d0      	b.n	80002ce <__aeabi_dadd+0x72>
 800052c:	0029      	movs	r1, r5
 800052e:	3e1f      	subs	r6, #31
 8000530:	40f1      	lsrs	r1, r6
 8000532:	2b20      	cmp	r3, #32
 8000534:	d100      	bne.n	8000538 <__aeabi_dadd+0x2dc>
 8000536:	e08d      	b.n	8000654 <__aeabi_dadd+0x3f8>
 8000538:	2240      	movs	r2, #64	; 0x40
 800053a:	1ad3      	subs	r3, r2, r3
 800053c:	409d      	lsls	r5, r3
 800053e:	432f      	orrs	r7, r5
 8000540:	1e7d      	subs	r5, r7, #1
 8000542:	41af      	sbcs	r7, r5
 8000544:	2400      	movs	r4, #0
 8000546:	430f      	orrs	r7, r1
 8000548:	2600      	movs	r6, #0
 800054a:	e744      	b.n	80003d6 <__aeabi_dadd+0x17a>
 800054c:	002b      	movs	r3, r5
 800054e:	0008      	movs	r0, r1
 8000550:	3b20      	subs	r3, #32
 8000552:	40d8      	lsrs	r0, r3
 8000554:	0003      	movs	r3, r0
 8000556:	2d20      	cmp	r5, #32
 8000558:	d100      	bne.n	800055c <__aeabi_dadd+0x300>
 800055a:	e07d      	b.n	8000658 <__aeabi_dadd+0x3fc>
 800055c:	2040      	movs	r0, #64	; 0x40
 800055e:	1b45      	subs	r5, r0, r5
 8000560:	40a9      	lsls	r1, r5
 8000562:	430a      	orrs	r2, r1
 8000564:	1e51      	subs	r1, r2, #1
 8000566:	418a      	sbcs	r2, r1
 8000568:	2100      	movs	r1, #0
 800056a:	431a      	orrs	r2, r3
 800056c:	e6c7      	b.n	80002fe <__aeabi_dadd+0xa2>
 800056e:	2e00      	cmp	r6, #0
 8000570:	d050      	beq.n	8000614 <__aeabi_dadd+0x3b8>
 8000572:	4e1a      	ldr	r6, [pc, #104]	; (80005dc <__aeabi_dadd+0x380>)
 8000574:	42b0      	cmp	r0, r6
 8000576:	d057      	beq.n	8000628 <__aeabi_dadd+0x3cc>
 8000578:	2680      	movs	r6, #128	; 0x80
 800057a:	426b      	negs	r3, r5
 800057c:	4699      	mov	r9, r3
 800057e:	0436      	lsls	r6, r6, #16
 8000580:	4334      	orrs	r4, r6
 8000582:	464b      	mov	r3, r9
 8000584:	2b38      	cmp	r3, #56	; 0x38
 8000586:	dd00      	ble.n	800058a <__aeabi_dadd+0x32e>
 8000588:	e0d6      	b.n	8000738 <__aeabi_dadd+0x4dc>
 800058a:	2b1f      	cmp	r3, #31
 800058c:	dd00      	ble.n	8000590 <__aeabi_dadd+0x334>
 800058e:	e135      	b.n	80007fc <__aeabi_dadd+0x5a0>
 8000590:	2620      	movs	r6, #32
 8000592:	1af5      	subs	r5, r6, r3
 8000594:	0026      	movs	r6, r4
 8000596:	40ae      	lsls	r6, r5
 8000598:	46b2      	mov	sl, r6
 800059a:	003e      	movs	r6, r7
 800059c:	40de      	lsrs	r6, r3
 800059e:	46ac      	mov	ip, r5
 80005a0:	0035      	movs	r5, r6
 80005a2:	4656      	mov	r6, sl
 80005a4:	432e      	orrs	r6, r5
 80005a6:	4665      	mov	r5, ip
 80005a8:	40af      	lsls	r7, r5
 80005aa:	1e7d      	subs	r5, r7, #1
 80005ac:	41af      	sbcs	r7, r5
 80005ae:	40dc      	lsrs	r4, r3
 80005b0:	4337      	orrs	r7, r6
 80005b2:	1bd7      	subs	r7, r2, r7
 80005b4:	42ba      	cmp	r2, r7
 80005b6:	4192      	sbcs	r2, r2
 80005b8:	1b0c      	subs	r4, r1, r4
 80005ba:	4252      	negs	r2, r2
 80005bc:	1aa4      	subs	r4, r4, r2
 80005be:	0006      	movs	r6, r0
 80005c0:	46d8      	mov	r8, fp
 80005c2:	e6a3      	b.n	800030c <__aeabi_dadd+0xb0>
 80005c4:	4664      	mov	r4, ip
 80005c6:	4667      	mov	r7, ip
 80005c8:	432c      	orrs	r4, r5
 80005ca:	d000      	beq.n	80005ce <__aeabi_dadd+0x372>
 80005cc:	e6a2      	b.n	8000314 <__aeabi_dadd+0xb8>
 80005ce:	2500      	movs	r5, #0
 80005d0:	2600      	movs	r6, #0
 80005d2:	2700      	movs	r7, #0
 80005d4:	e706      	b.n	80003e4 <__aeabi_dadd+0x188>
 80005d6:	001e      	movs	r6, r3
 80005d8:	e6c4      	b.n	8000364 <__aeabi_dadd+0x108>
 80005da:	46c0      	nop			; (mov r8, r8)
 80005dc:	000007ff 	.word	0x000007ff
 80005e0:	ff7fffff 	.word	0xff7fffff
 80005e4:	800fffff 	.word	0x800fffff
 80005e8:	2b1f      	cmp	r3, #31
 80005ea:	dc63      	bgt.n	80006b4 <__aeabi_dadd+0x458>
 80005ec:	2020      	movs	r0, #32
 80005ee:	1ac3      	subs	r3, r0, r3
 80005f0:	0008      	movs	r0, r1
 80005f2:	4098      	lsls	r0, r3
 80005f4:	469c      	mov	ip, r3
 80005f6:	4683      	mov	fp, r0
 80005f8:	4653      	mov	r3, sl
 80005fa:	0010      	movs	r0, r2
 80005fc:	40d8      	lsrs	r0, r3
 80005fe:	0003      	movs	r3, r0
 8000600:	4658      	mov	r0, fp
 8000602:	4318      	orrs	r0, r3
 8000604:	4663      	mov	r3, ip
 8000606:	409a      	lsls	r2, r3
 8000608:	1e53      	subs	r3, r2, #1
 800060a:	419a      	sbcs	r2, r3
 800060c:	4653      	mov	r3, sl
 800060e:	4302      	orrs	r2, r0
 8000610:	40d9      	lsrs	r1, r3
 8000612:	e703      	b.n	800041c <__aeabi_dadd+0x1c0>
 8000614:	0026      	movs	r6, r4
 8000616:	433e      	orrs	r6, r7
 8000618:	d006      	beq.n	8000628 <__aeabi_dadd+0x3cc>
 800061a:	43eb      	mvns	r3, r5
 800061c:	4699      	mov	r9, r3
 800061e:	2b00      	cmp	r3, #0
 8000620:	d0c7      	beq.n	80005b2 <__aeabi_dadd+0x356>
 8000622:	4e94      	ldr	r6, [pc, #592]	; (8000874 <__aeabi_dadd+0x618>)
 8000624:	42b0      	cmp	r0, r6
 8000626:	d1ac      	bne.n	8000582 <__aeabi_dadd+0x326>
 8000628:	000c      	movs	r4, r1
 800062a:	0017      	movs	r7, r2
 800062c:	0006      	movs	r6, r0
 800062e:	46d8      	mov	r8, fp
 8000630:	e698      	b.n	8000364 <__aeabi_dadd+0x108>
 8000632:	4b90      	ldr	r3, [pc, #576]	; (8000874 <__aeabi_dadd+0x618>)
 8000634:	459a      	cmp	sl, r3
 8000636:	d00b      	beq.n	8000650 <__aeabi_dadd+0x3f4>
 8000638:	4682      	mov	sl, r0
 800063a:	e6e7      	b.n	800040c <__aeabi_dadd+0x1b0>
 800063c:	2800      	cmp	r0, #0
 800063e:	d000      	beq.n	8000642 <__aeabi_dadd+0x3e6>
 8000640:	e09e      	b.n	8000780 <__aeabi_dadd+0x524>
 8000642:	0018      	movs	r0, r3
 8000644:	4310      	orrs	r0, r2
 8000646:	d100      	bne.n	800064a <__aeabi_dadd+0x3ee>
 8000648:	e0e9      	b.n	800081e <__aeabi_dadd+0x5c2>
 800064a:	001c      	movs	r4, r3
 800064c:	0017      	movs	r7, r2
 800064e:	46d8      	mov	r8, fp
 8000650:	4e88      	ldr	r6, [pc, #544]	; (8000874 <__aeabi_dadd+0x618>)
 8000652:	e687      	b.n	8000364 <__aeabi_dadd+0x108>
 8000654:	2500      	movs	r5, #0
 8000656:	e772      	b.n	800053e <__aeabi_dadd+0x2e2>
 8000658:	2100      	movs	r1, #0
 800065a:	e782      	b.n	8000562 <__aeabi_dadd+0x306>
 800065c:	0023      	movs	r3, r4
 800065e:	433b      	orrs	r3, r7
 8000660:	2e00      	cmp	r6, #0
 8000662:	d000      	beq.n	8000666 <__aeabi_dadd+0x40a>
 8000664:	e0ab      	b.n	80007be <__aeabi_dadd+0x562>
 8000666:	2b00      	cmp	r3, #0
 8000668:	d100      	bne.n	800066c <__aeabi_dadd+0x410>
 800066a:	e0e7      	b.n	800083c <__aeabi_dadd+0x5e0>
 800066c:	000b      	movs	r3, r1
 800066e:	4313      	orrs	r3, r2
 8000670:	d100      	bne.n	8000674 <__aeabi_dadd+0x418>
 8000672:	e677      	b.n	8000364 <__aeabi_dadd+0x108>
 8000674:	18ba      	adds	r2, r7, r2
 8000676:	42ba      	cmp	r2, r7
 8000678:	41bf      	sbcs	r7, r7
 800067a:	1864      	adds	r4, r4, r1
 800067c:	427f      	negs	r7, r7
 800067e:	19e4      	adds	r4, r4, r7
 8000680:	0223      	lsls	r3, r4, #8
 8000682:	d400      	bmi.n	8000686 <__aeabi_dadd+0x42a>
 8000684:	e0f2      	b.n	800086c <__aeabi_dadd+0x610>
 8000686:	4b7c      	ldr	r3, [pc, #496]	; (8000878 <__aeabi_dadd+0x61c>)
 8000688:	0017      	movs	r7, r2
 800068a:	401c      	ands	r4, r3
 800068c:	0006      	movs	r6, r0
 800068e:	e669      	b.n	8000364 <__aeabi_dadd+0x108>
 8000690:	0020      	movs	r0, r4
 8000692:	4338      	orrs	r0, r7
 8000694:	2e00      	cmp	r6, #0
 8000696:	d1d1      	bne.n	800063c <__aeabi_dadd+0x3e0>
 8000698:	2800      	cmp	r0, #0
 800069a:	d15b      	bne.n	8000754 <__aeabi_dadd+0x4f8>
 800069c:	001c      	movs	r4, r3
 800069e:	4314      	orrs	r4, r2
 80006a0:	d100      	bne.n	80006a4 <__aeabi_dadd+0x448>
 80006a2:	e0a8      	b.n	80007f6 <__aeabi_dadd+0x59a>
 80006a4:	001c      	movs	r4, r3
 80006a6:	0017      	movs	r7, r2
 80006a8:	46d8      	mov	r8, fp
 80006aa:	e65b      	b.n	8000364 <__aeabi_dadd+0x108>
 80006ac:	0006      	movs	r6, r0
 80006ae:	2400      	movs	r4, #0
 80006b0:	2700      	movs	r7, #0
 80006b2:	e697      	b.n	80003e4 <__aeabi_dadd+0x188>
 80006b4:	4650      	mov	r0, sl
 80006b6:	000b      	movs	r3, r1
 80006b8:	3820      	subs	r0, #32
 80006ba:	40c3      	lsrs	r3, r0
 80006bc:	4699      	mov	r9, r3
 80006be:	4653      	mov	r3, sl
 80006c0:	2b20      	cmp	r3, #32
 80006c2:	d100      	bne.n	80006c6 <__aeabi_dadd+0x46a>
 80006c4:	e095      	b.n	80007f2 <__aeabi_dadd+0x596>
 80006c6:	2340      	movs	r3, #64	; 0x40
 80006c8:	4650      	mov	r0, sl
 80006ca:	1a1b      	subs	r3, r3, r0
 80006cc:	4099      	lsls	r1, r3
 80006ce:	430a      	orrs	r2, r1
 80006d0:	1e51      	subs	r1, r2, #1
 80006d2:	418a      	sbcs	r2, r1
 80006d4:	464b      	mov	r3, r9
 80006d6:	2100      	movs	r1, #0
 80006d8:	431a      	orrs	r2, r3
 80006da:	e69f      	b.n	800041c <__aeabi_dadd+0x1c0>
 80006dc:	2e00      	cmp	r6, #0
 80006de:	d130      	bne.n	8000742 <__aeabi_dadd+0x4e6>
 80006e0:	0026      	movs	r6, r4
 80006e2:	433e      	orrs	r6, r7
 80006e4:	d067      	beq.n	80007b6 <__aeabi_dadd+0x55a>
 80006e6:	43db      	mvns	r3, r3
 80006e8:	469a      	mov	sl, r3
 80006ea:	2b00      	cmp	r3, #0
 80006ec:	d01c      	beq.n	8000728 <__aeabi_dadd+0x4cc>
 80006ee:	4e61      	ldr	r6, [pc, #388]	; (8000874 <__aeabi_dadd+0x618>)
 80006f0:	42b0      	cmp	r0, r6
 80006f2:	d060      	beq.n	80007b6 <__aeabi_dadd+0x55a>
 80006f4:	4653      	mov	r3, sl
 80006f6:	2b38      	cmp	r3, #56	; 0x38
 80006f8:	dd00      	ble.n	80006fc <__aeabi_dadd+0x4a0>
 80006fa:	e096      	b.n	800082a <__aeabi_dadd+0x5ce>
 80006fc:	2b1f      	cmp	r3, #31
 80006fe:	dd00      	ble.n	8000702 <__aeabi_dadd+0x4a6>
 8000700:	e09f      	b.n	8000842 <__aeabi_dadd+0x5e6>
 8000702:	2620      	movs	r6, #32
 8000704:	1af3      	subs	r3, r6, r3
 8000706:	0026      	movs	r6, r4
 8000708:	409e      	lsls	r6, r3
 800070a:	469c      	mov	ip, r3
 800070c:	46b3      	mov	fp, r6
 800070e:	4653      	mov	r3, sl
 8000710:	003e      	movs	r6, r7
 8000712:	40de      	lsrs	r6, r3
 8000714:	0033      	movs	r3, r6
 8000716:	465e      	mov	r6, fp
 8000718:	431e      	orrs	r6, r3
 800071a:	4663      	mov	r3, ip
 800071c:	409f      	lsls	r7, r3
 800071e:	1e7b      	subs	r3, r7, #1
 8000720:	419f      	sbcs	r7, r3
 8000722:	4653      	mov	r3, sl
 8000724:	40dc      	lsrs	r4, r3
 8000726:	4337      	orrs	r7, r6
 8000728:	18bf      	adds	r7, r7, r2
 800072a:	4297      	cmp	r7, r2
 800072c:	4192      	sbcs	r2, r2
 800072e:	1864      	adds	r4, r4, r1
 8000730:	4252      	negs	r2, r2
 8000732:	18a4      	adds	r4, r4, r2
 8000734:	0006      	movs	r6, r0
 8000736:	e678      	b.n	800042a <__aeabi_dadd+0x1ce>
 8000738:	4327      	orrs	r7, r4
 800073a:	1e7c      	subs	r4, r7, #1
 800073c:	41a7      	sbcs	r7, r4
 800073e:	2400      	movs	r4, #0
 8000740:	e737      	b.n	80005b2 <__aeabi_dadd+0x356>
 8000742:	4e4c      	ldr	r6, [pc, #304]	; (8000874 <__aeabi_dadd+0x618>)
 8000744:	42b0      	cmp	r0, r6
 8000746:	d036      	beq.n	80007b6 <__aeabi_dadd+0x55a>
 8000748:	2680      	movs	r6, #128	; 0x80
 800074a:	425b      	negs	r3, r3
 800074c:	0436      	lsls	r6, r6, #16
 800074e:	469a      	mov	sl, r3
 8000750:	4334      	orrs	r4, r6
 8000752:	e7cf      	b.n	80006f4 <__aeabi_dadd+0x498>
 8000754:	0018      	movs	r0, r3
 8000756:	4310      	orrs	r0, r2
 8000758:	d100      	bne.n	800075c <__aeabi_dadd+0x500>
 800075a:	e603      	b.n	8000364 <__aeabi_dadd+0x108>
 800075c:	1ab8      	subs	r0, r7, r2
 800075e:	4684      	mov	ip, r0
 8000760:	4567      	cmp	r7, ip
 8000762:	41ad      	sbcs	r5, r5
 8000764:	1ae0      	subs	r0, r4, r3
 8000766:	426d      	negs	r5, r5
 8000768:	1b40      	subs	r0, r0, r5
 800076a:	0205      	lsls	r5, r0, #8
 800076c:	d400      	bmi.n	8000770 <__aeabi_dadd+0x514>
 800076e:	e62c      	b.n	80003ca <__aeabi_dadd+0x16e>
 8000770:	1bd7      	subs	r7, r2, r7
 8000772:	42ba      	cmp	r2, r7
 8000774:	4192      	sbcs	r2, r2
 8000776:	1b1c      	subs	r4, r3, r4
 8000778:	4252      	negs	r2, r2
 800077a:	1aa4      	subs	r4, r4, r2
 800077c:	46d8      	mov	r8, fp
 800077e:	e5f1      	b.n	8000364 <__aeabi_dadd+0x108>
 8000780:	0018      	movs	r0, r3
 8000782:	4310      	orrs	r0, r2
 8000784:	d100      	bne.n	8000788 <__aeabi_dadd+0x52c>
 8000786:	e763      	b.n	8000650 <__aeabi_dadd+0x3f4>
 8000788:	08f8      	lsrs	r0, r7, #3
 800078a:	0767      	lsls	r7, r4, #29
 800078c:	4307      	orrs	r7, r0
 800078e:	2080      	movs	r0, #128	; 0x80
 8000790:	08e4      	lsrs	r4, r4, #3
 8000792:	0300      	lsls	r0, r0, #12
 8000794:	4204      	tst	r4, r0
 8000796:	d008      	beq.n	80007aa <__aeabi_dadd+0x54e>
 8000798:	08dd      	lsrs	r5, r3, #3
 800079a:	4205      	tst	r5, r0
 800079c:	d105      	bne.n	80007aa <__aeabi_dadd+0x54e>
 800079e:	08d2      	lsrs	r2, r2, #3
 80007a0:	0759      	lsls	r1, r3, #29
 80007a2:	4311      	orrs	r1, r2
 80007a4:	000f      	movs	r7, r1
 80007a6:	002c      	movs	r4, r5
 80007a8:	46d8      	mov	r8, fp
 80007aa:	0f7b      	lsrs	r3, r7, #29
 80007ac:	00e4      	lsls	r4, r4, #3
 80007ae:	431c      	orrs	r4, r3
 80007b0:	00ff      	lsls	r7, r7, #3
 80007b2:	4e30      	ldr	r6, [pc, #192]	; (8000874 <__aeabi_dadd+0x618>)
 80007b4:	e5d6      	b.n	8000364 <__aeabi_dadd+0x108>
 80007b6:	000c      	movs	r4, r1
 80007b8:	0017      	movs	r7, r2
 80007ba:	0006      	movs	r6, r0
 80007bc:	e5d2      	b.n	8000364 <__aeabi_dadd+0x108>
 80007be:	2b00      	cmp	r3, #0
 80007c0:	d038      	beq.n	8000834 <__aeabi_dadd+0x5d8>
 80007c2:	000b      	movs	r3, r1
 80007c4:	4313      	orrs	r3, r2
 80007c6:	d100      	bne.n	80007ca <__aeabi_dadd+0x56e>
 80007c8:	e742      	b.n	8000650 <__aeabi_dadd+0x3f4>
 80007ca:	08f8      	lsrs	r0, r7, #3
 80007cc:	0767      	lsls	r7, r4, #29
 80007ce:	4307      	orrs	r7, r0
 80007d0:	2080      	movs	r0, #128	; 0x80
 80007d2:	08e4      	lsrs	r4, r4, #3
 80007d4:	0300      	lsls	r0, r0, #12
 80007d6:	4204      	tst	r4, r0
 80007d8:	d0e7      	beq.n	80007aa <__aeabi_dadd+0x54e>
 80007da:	08cb      	lsrs	r3, r1, #3
 80007dc:	4203      	tst	r3, r0
 80007de:	d1e4      	bne.n	80007aa <__aeabi_dadd+0x54e>
 80007e0:	08d2      	lsrs	r2, r2, #3
 80007e2:	0749      	lsls	r1, r1, #29
 80007e4:	4311      	orrs	r1, r2
 80007e6:	000f      	movs	r7, r1
 80007e8:	001c      	movs	r4, r3
 80007ea:	e7de      	b.n	80007aa <__aeabi_dadd+0x54e>
 80007ec:	2700      	movs	r7, #0
 80007ee:	2400      	movs	r4, #0
 80007f0:	e5d5      	b.n	800039e <__aeabi_dadd+0x142>
 80007f2:	2100      	movs	r1, #0
 80007f4:	e76b      	b.n	80006ce <__aeabi_dadd+0x472>
 80007f6:	2500      	movs	r5, #0
 80007f8:	2700      	movs	r7, #0
 80007fa:	e5f3      	b.n	80003e4 <__aeabi_dadd+0x188>
 80007fc:	464e      	mov	r6, r9
 80007fe:	0025      	movs	r5, r4
 8000800:	3e20      	subs	r6, #32
 8000802:	40f5      	lsrs	r5, r6
 8000804:	464b      	mov	r3, r9
 8000806:	002e      	movs	r6, r5
 8000808:	2b20      	cmp	r3, #32
 800080a:	d02d      	beq.n	8000868 <__aeabi_dadd+0x60c>
 800080c:	2540      	movs	r5, #64	; 0x40
 800080e:	1aed      	subs	r5, r5, r3
 8000810:	40ac      	lsls	r4, r5
 8000812:	4327      	orrs	r7, r4
 8000814:	1e7c      	subs	r4, r7, #1
 8000816:	41a7      	sbcs	r7, r4
 8000818:	2400      	movs	r4, #0
 800081a:	4337      	orrs	r7, r6
 800081c:	e6c9      	b.n	80005b2 <__aeabi_dadd+0x356>
 800081e:	2480      	movs	r4, #128	; 0x80
 8000820:	2500      	movs	r5, #0
 8000822:	0324      	lsls	r4, r4, #12
 8000824:	4e13      	ldr	r6, [pc, #76]	; (8000874 <__aeabi_dadd+0x618>)
 8000826:	2700      	movs	r7, #0
 8000828:	e5dc      	b.n	80003e4 <__aeabi_dadd+0x188>
 800082a:	4327      	orrs	r7, r4
 800082c:	1e7c      	subs	r4, r7, #1
 800082e:	41a7      	sbcs	r7, r4
 8000830:	2400      	movs	r4, #0
 8000832:	e779      	b.n	8000728 <__aeabi_dadd+0x4cc>
 8000834:	000c      	movs	r4, r1
 8000836:	0017      	movs	r7, r2
 8000838:	4e0e      	ldr	r6, [pc, #56]	; (8000874 <__aeabi_dadd+0x618>)
 800083a:	e593      	b.n	8000364 <__aeabi_dadd+0x108>
 800083c:	000c      	movs	r4, r1
 800083e:	0017      	movs	r7, r2
 8000840:	e590      	b.n	8000364 <__aeabi_dadd+0x108>
 8000842:	4656      	mov	r6, sl
 8000844:	0023      	movs	r3, r4
 8000846:	3e20      	subs	r6, #32
 8000848:	40f3      	lsrs	r3, r6
 800084a:	4699      	mov	r9, r3
 800084c:	4653      	mov	r3, sl
 800084e:	2b20      	cmp	r3, #32
 8000850:	d00e      	beq.n	8000870 <__aeabi_dadd+0x614>
 8000852:	2340      	movs	r3, #64	; 0x40
 8000854:	4656      	mov	r6, sl
 8000856:	1b9b      	subs	r3, r3, r6
 8000858:	409c      	lsls	r4, r3
 800085a:	4327      	orrs	r7, r4
 800085c:	1e7c      	subs	r4, r7, #1
 800085e:	41a7      	sbcs	r7, r4
 8000860:	464b      	mov	r3, r9
 8000862:	2400      	movs	r4, #0
 8000864:	431f      	orrs	r7, r3
 8000866:	e75f      	b.n	8000728 <__aeabi_dadd+0x4cc>
 8000868:	2400      	movs	r4, #0
 800086a:	e7d2      	b.n	8000812 <__aeabi_dadd+0x5b6>
 800086c:	0017      	movs	r7, r2
 800086e:	e5b2      	b.n	80003d6 <__aeabi_dadd+0x17a>
 8000870:	2400      	movs	r4, #0
 8000872:	e7f2      	b.n	800085a <__aeabi_dadd+0x5fe>
 8000874:	000007ff 	.word	0x000007ff
 8000878:	ff7fffff 	.word	0xff7fffff

0800087c <__aeabi_ddiv>:
 800087c:	b5f0      	push	{r4, r5, r6, r7, lr}
 800087e:	4657      	mov	r7, sl
 8000880:	4645      	mov	r5, r8
 8000882:	46de      	mov	lr, fp
 8000884:	464e      	mov	r6, r9
 8000886:	b5e0      	push	{r5, r6, r7, lr}
 8000888:	004c      	lsls	r4, r1, #1
 800088a:	030e      	lsls	r6, r1, #12
 800088c:	b087      	sub	sp, #28
 800088e:	4683      	mov	fp, r0
 8000890:	4692      	mov	sl, r2
 8000892:	001d      	movs	r5, r3
 8000894:	4680      	mov	r8, r0
 8000896:	0b36      	lsrs	r6, r6, #12
 8000898:	0d64      	lsrs	r4, r4, #21
 800089a:	0fcf      	lsrs	r7, r1, #31
 800089c:	2c00      	cmp	r4, #0
 800089e:	d04f      	beq.n	8000940 <__aeabi_ddiv+0xc4>
 80008a0:	4b6f      	ldr	r3, [pc, #444]	; (8000a60 <__aeabi_ddiv+0x1e4>)
 80008a2:	429c      	cmp	r4, r3
 80008a4:	d035      	beq.n	8000912 <__aeabi_ddiv+0x96>
 80008a6:	2380      	movs	r3, #128	; 0x80
 80008a8:	0f42      	lsrs	r2, r0, #29
 80008aa:	041b      	lsls	r3, r3, #16
 80008ac:	00f6      	lsls	r6, r6, #3
 80008ae:	4313      	orrs	r3, r2
 80008b0:	4333      	orrs	r3, r6
 80008b2:	4699      	mov	r9, r3
 80008b4:	00c3      	lsls	r3, r0, #3
 80008b6:	4698      	mov	r8, r3
 80008b8:	4b6a      	ldr	r3, [pc, #424]	; (8000a64 <__aeabi_ddiv+0x1e8>)
 80008ba:	2600      	movs	r6, #0
 80008bc:	469c      	mov	ip, r3
 80008be:	2300      	movs	r3, #0
 80008c0:	4464      	add	r4, ip
 80008c2:	9303      	str	r3, [sp, #12]
 80008c4:	032b      	lsls	r3, r5, #12
 80008c6:	0b1b      	lsrs	r3, r3, #12
 80008c8:	469b      	mov	fp, r3
 80008ca:	006b      	lsls	r3, r5, #1
 80008cc:	0fed      	lsrs	r5, r5, #31
 80008ce:	4650      	mov	r0, sl
 80008d0:	0d5b      	lsrs	r3, r3, #21
 80008d2:	9501      	str	r5, [sp, #4]
 80008d4:	d05e      	beq.n	8000994 <__aeabi_ddiv+0x118>
 80008d6:	4a62      	ldr	r2, [pc, #392]	; (8000a60 <__aeabi_ddiv+0x1e4>)
 80008d8:	4293      	cmp	r3, r2
 80008da:	d053      	beq.n	8000984 <__aeabi_ddiv+0x108>
 80008dc:	465a      	mov	r2, fp
 80008de:	00d1      	lsls	r1, r2, #3
 80008e0:	2280      	movs	r2, #128	; 0x80
 80008e2:	0f40      	lsrs	r0, r0, #29
 80008e4:	0412      	lsls	r2, r2, #16
 80008e6:	4302      	orrs	r2, r0
 80008e8:	430a      	orrs	r2, r1
 80008ea:	4693      	mov	fp, r2
 80008ec:	4652      	mov	r2, sl
 80008ee:	00d1      	lsls	r1, r2, #3
 80008f0:	4a5c      	ldr	r2, [pc, #368]	; (8000a64 <__aeabi_ddiv+0x1e8>)
 80008f2:	4694      	mov	ip, r2
 80008f4:	2200      	movs	r2, #0
 80008f6:	4463      	add	r3, ip
 80008f8:	0038      	movs	r0, r7
 80008fa:	4068      	eors	r0, r5
 80008fc:	4684      	mov	ip, r0
 80008fe:	9002      	str	r0, [sp, #8]
 8000900:	1ae4      	subs	r4, r4, r3
 8000902:	4316      	orrs	r6, r2
 8000904:	2e0f      	cmp	r6, #15
 8000906:	d900      	bls.n	800090a <__aeabi_ddiv+0x8e>
 8000908:	e0b4      	b.n	8000a74 <__aeabi_ddiv+0x1f8>
 800090a:	4b57      	ldr	r3, [pc, #348]	; (8000a68 <__aeabi_ddiv+0x1ec>)
 800090c:	00b6      	lsls	r6, r6, #2
 800090e:	599b      	ldr	r3, [r3, r6]
 8000910:	469f      	mov	pc, r3
 8000912:	0003      	movs	r3, r0
 8000914:	4333      	orrs	r3, r6
 8000916:	4699      	mov	r9, r3
 8000918:	d16c      	bne.n	80009f4 <__aeabi_ddiv+0x178>
 800091a:	2300      	movs	r3, #0
 800091c:	4698      	mov	r8, r3
 800091e:	3302      	adds	r3, #2
 8000920:	2608      	movs	r6, #8
 8000922:	9303      	str	r3, [sp, #12]
 8000924:	e7ce      	b.n	80008c4 <__aeabi_ddiv+0x48>
 8000926:	46cb      	mov	fp, r9
 8000928:	4641      	mov	r1, r8
 800092a:	9a03      	ldr	r2, [sp, #12]
 800092c:	9701      	str	r7, [sp, #4]
 800092e:	2a02      	cmp	r2, #2
 8000930:	d165      	bne.n	80009fe <__aeabi_ddiv+0x182>
 8000932:	9b01      	ldr	r3, [sp, #4]
 8000934:	4c4a      	ldr	r4, [pc, #296]	; (8000a60 <__aeabi_ddiv+0x1e4>)
 8000936:	469c      	mov	ip, r3
 8000938:	2300      	movs	r3, #0
 800093a:	2200      	movs	r2, #0
 800093c:	4698      	mov	r8, r3
 800093e:	e06b      	b.n	8000a18 <__aeabi_ddiv+0x19c>
 8000940:	0003      	movs	r3, r0
 8000942:	4333      	orrs	r3, r6
 8000944:	4699      	mov	r9, r3
 8000946:	d04e      	beq.n	80009e6 <__aeabi_ddiv+0x16a>
 8000948:	2e00      	cmp	r6, #0
 800094a:	d100      	bne.n	800094e <__aeabi_ddiv+0xd2>
 800094c:	e1bc      	b.n	8000cc8 <__aeabi_ddiv+0x44c>
 800094e:	0030      	movs	r0, r6
 8000950:	f000 fe92 	bl	8001678 <__clzsi2>
 8000954:	0003      	movs	r3, r0
 8000956:	3b0b      	subs	r3, #11
 8000958:	2b1c      	cmp	r3, #28
 800095a:	dd00      	ble.n	800095e <__aeabi_ddiv+0xe2>
 800095c:	e1ac      	b.n	8000cb8 <__aeabi_ddiv+0x43c>
 800095e:	221d      	movs	r2, #29
 8000960:	1ad3      	subs	r3, r2, r3
 8000962:	465a      	mov	r2, fp
 8000964:	0001      	movs	r1, r0
 8000966:	40da      	lsrs	r2, r3
 8000968:	3908      	subs	r1, #8
 800096a:	408e      	lsls	r6, r1
 800096c:	0013      	movs	r3, r2
 800096e:	4333      	orrs	r3, r6
 8000970:	4699      	mov	r9, r3
 8000972:	465b      	mov	r3, fp
 8000974:	408b      	lsls	r3, r1
 8000976:	4698      	mov	r8, r3
 8000978:	2300      	movs	r3, #0
 800097a:	4c3c      	ldr	r4, [pc, #240]	; (8000a6c <__aeabi_ddiv+0x1f0>)
 800097c:	2600      	movs	r6, #0
 800097e:	1a24      	subs	r4, r4, r0
 8000980:	9303      	str	r3, [sp, #12]
 8000982:	e79f      	b.n	80008c4 <__aeabi_ddiv+0x48>
 8000984:	4651      	mov	r1, sl
 8000986:	465a      	mov	r2, fp
 8000988:	4311      	orrs	r1, r2
 800098a:	d129      	bne.n	80009e0 <__aeabi_ddiv+0x164>
 800098c:	2200      	movs	r2, #0
 800098e:	4693      	mov	fp, r2
 8000990:	3202      	adds	r2, #2
 8000992:	e7b1      	b.n	80008f8 <__aeabi_ddiv+0x7c>
 8000994:	4659      	mov	r1, fp
 8000996:	4301      	orrs	r1, r0
 8000998:	d01e      	beq.n	80009d8 <__aeabi_ddiv+0x15c>
 800099a:	465b      	mov	r3, fp
 800099c:	2b00      	cmp	r3, #0
 800099e:	d100      	bne.n	80009a2 <__aeabi_ddiv+0x126>
 80009a0:	e19e      	b.n	8000ce0 <__aeabi_ddiv+0x464>
 80009a2:	4658      	mov	r0, fp
 80009a4:	f000 fe68 	bl	8001678 <__clzsi2>
 80009a8:	0003      	movs	r3, r0
 80009aa:	3b0b      	subs	r3, #11
 80009ac:	2b1c      	cmp	r3, #28
 80009ae:	dd00      	ble.n	80009b2 <__aeabi_ddiv+0x136>
 80009b0:	e18f      	b.n	8000cd2 <__aeabi_ddiv+0x456>
 80009b2:	0002      	movs	r2, r0
 80009b4:	4659      	mov	r1, fp
 80009b6:	3a08      	subs	r2, #8
 80009b8:	4091      	lsls	r1, r2
 80009ba:	468b      	mov	fp, r1
 80009bc:	211d      	movs	r1, #29
 80009be:	1acb      	subs	r3, r1, r3
 80009c0:	4651      	mov	r1, sl
 80009c2:	40d9      	lsrs	r1, r3
 80009c4:	000b      	movs	r3, r1
 80009c6:	4659      	mov	r1, fp
 80009c8:	430b      	orrs	r3, r1
 80009ca:	4651      	mov	r1, sl
 80009cc:	469b      	mov	fp, r3
 80009ce:	4091      	lsls	r1, r2
 80009d0:	4b26      	ldr	r3, [pc, #152]	; (8000a6c <__aeabi_ddiv+0x1f0>)
 80009d2:	2200      	movs	r2, #0
 80009d4:	1a1b      	subs	r3, r3, r0
 80009d6:	e78f      	b.n	80008f8 <__aeabi_ddiv+0x7c>
 80009d8:	2300      	movs	r3, #0
 80009da:	2201      	movs	r2, #1
 80009dc:	469b      	mov	fp, r3
 80009de:	e78b      	b.n	80008f8 <__aeabi_ddiv+0x7c>
 80009e0:	4651      	mov	r1, sl
 80009e2:	2203      	movs	r2, #3
 80009e4:	e788      	b.n	80008f8 <__aeabi_ddiv+0x7c>
 80009e6:	2300      	movs	r3, #0
 80009e8:	4698      	mov	r8, r3
 80009ea:	3301      	adds	r3, #1
 80009ec:	2604      	movs	r6, #4
 80009ee:	2400      	movs	r4, #0
 80009f0:	9303      	str	r3, [sp, #12]
 80009f2:	e767      	b.n	80008c4 <__aeabi_ddiv+0x48>
 80009f4:	2303      	movs	r3, #3
 80009f6:	46b1      	mov	r9, r6
 80009f8:	9303      	str	r3, [sp, #12]
 80009fa:	260c      	movs	r6, #12
 80009fc:	e762      	b.n	80008c4 <__aeabi_ddiv+0x48>
 80009fe:	2a03      	cmp	r2, #3
 8000a00:	d100      	bne.n	8000a04 <__aeabi_ddiv+0x188>
 8000a02:	e25c      	b.n	8000ebe <__aeabi_ddiv+0x642>
 8000a04:	9b01      	ldr	r3, [sp, #4]
 8000a06:	2a01      	cmp	r2, #1
 8000a08:	d000      	beq.n	8000a0c <__aeabi_ddiv+0x190>
 8000a0a:	e1e4      	b.n	8000dd6 <__aeabi_ddiv+0x55a>
 8000a0c:	4013      	ands	r3, r2
 8000a0e:	469c      	mov	ip, r3
 8000a10:	2300      	movs	r3, #0
 8000a12:	2400      	movs	r4, #0
 8000a14:	2200      	movs	r2, #0
 8000a16:	4698      	mov	r8, r3
 8000a18:	2100      	movs	r1, #0
 8000a1a:	0312      	lsls	r2, r2, #12
 8000a1c:	0b13      	lsrs	r3, r2, #12
 8000a1e:	0d0a      	lsrs	r2, r1, #20
 8000a20:	0512      	lsls	r2, r2, #20
 8000a22:	431a      	orrs	r2, r3
 8000a24:	0523      	lsls	r3, r4, #20
 8000a26:	4c12      	ldr	r4, [pc, #72]	; (8000a70 <__aeabi_ddiv+0x1f4>)
 8000a28:	4640      	mov	r0, r8
 8000a2a:	4022      	ands	r2, r4
 8000a2c:	4313      	orrs	r3, r2
 8000a2e:	4662      	mov	r2, ip
 8000a30:	005b      	lsls	r3, r3, #1
 8000a32:	07d2      	lsls	r2, r2, #31
 8000a34:	085b      	lsrs	r3, r3, #1
 8000a36:	4313      	orrs	r3, r2
 8000a38:	0019      	movs	r1, r3
 8000a3a:	b007      	add	sp, #28
 8000a3c:	bc3c      	pop	{r2, r3, r4, r5}
 8000a3e:	4690      	mov	r8, r2
 8000a40:	4699      	mov	r9, r3
 8000a42:	46a2      	mov	sl, r4
 8000a44:	46ab      	mov	fp, r5
 8000a46:	bdf0      	pop	{r4, r5, r6, r7, pc}
 8000a48:	2300      	movs	r3, #0
 8000a4a:	2280      	movs	r2, #128	; 0x80
 8000a4c:	469c      	mov	ip, r3
 8000a4e:	0312      	lsls	r2, r2, #12
 8000a50:	4698      	mov	r8, r3
 8000a52:	4c03      	ldr	r4, [pc, #12]	; (8000a60 <__aeabi_ddiv+0x1e4>)
 8000a54:	e7e0      	b.n	8000a18 <__aeabi_ddiv+0x19c>
 8000a56:	2300      	movs	r3, #0
 8000a58:	4c01      	ldr	r4, [pc, #4]	; (8000a60 <__aeabi_ddiv+0x1e4>)
 8000a5a:	2200      	movs	r2, #0
 8000a5c:	4698      	mov	r8, r3
 8000a5e:	e7db      	b.n	8000a18 <__aeabi_ddiv+0x19c>
 8000a60:	000007ff 	.word	0x000007ff
 8000a64:	fffffc01 	.word	0xfffffc01
 8000a68:	08002310 	.word	0x08002310
 8000a6c:	fffffc0d 	.word	0xfffffc0d
 8000a70:	800fffff 	.word	0x800fffff
 8000a74:	45d9      	cmp	r9, fp
 8000a76:	d900      	bls.n	8000a7a <__aeabi_ddiv+0x1fe>
 8000a78:	e139      	b.n	8000cee <__aeabi_ddiv+0x472>
 8000a7a:	d100      	bne.n	8000a7e <__aeabi_ddiv+0x202>
 8000a7c:	e134      	b.n	8000ce8 <__aeabi_ddiv+0x46c>
 8000a7e:	2300      	movs	r3, #0
 8000a80:	4646      	mov	r6, r8
 8000a82:	464d      	mov	r5, r9
 8000a84:	469a      	mov	sl, r3
 8000a86:	3c01      	subs	r4, #1
 8000a88:	465b      	mov	r3, fp
 8000a8a:	0e0a      	lsrs	r2, r1, #24
 8000a8c:	021b      	lsls	r3, r3, #8
 8000a8e:	431a      	orrs	r2, r3
 8000a90:	020b      	lsls	r3, r1, #8
 8000a92:	0c17      	lsrs	r7, r2, #16
 8000a94:	9303      	str	r3, [sp, #12]
 8000a96:	0413      	lsls	r3, r2, #16
 8000a98:	0c1b      	lsrs	r3, r3, #16
 8000a9a:	0039      	movs	r1, r7
 8000a9c:	0028      	movs	r0, r5
 8000a9e:	4690      	mov	r8, r2
 8000aa0:	9301      	str	r3, [sp, #4]
 8000aa2:	f7ff fb31 	bl	8000108 <__udivsi3>
 8000aa6:	0002      	movs	r2, r0
 8000aa8:	9b01      	ldr	r3, [sp, #4]
 8000aaa:	4683      	mov	fp, r0
 8000aac:	435a      	muls	r2, r3
 8000aae:	0028      	movs	r0, r5
 8000ab0:	0039      	movs	r1, r7
 8000ab2:	4691      	mov	r9, r2
 8000ab4:	f7ff fbae 	bl	8000214 <__aeabi_uidivmod>
 8000ab8:	0c35      	lsrs	r5, r6, #16
 8000aba:	0409      	lsls	r1, r1, #16
 8000abc:	430d      	orrs	r5, r1
 8000abe:	45a9      	cmp	r9, r5
 8000ac0:	d90d      	bls.n	8000ade <__aeabi_ddiv+0x262>
 8000ac2:	465b      	mov	r3, fp
 8000ac4:	4445      	add	r5, r8
 8000ac6:	3b01      	subs	r3, #1
 8000ac8:	45a8      	cmp	r8, r5
 8000aca:	d900      	bls.n	8000ace <__aeabi_ddiv+0x252>
 8000acc:	e13a      	b.n	8000d44 <__aeabi_ddiv+0x4c8>
 8000ace:	45a9      	cmp	r9, r5
 8000ad0:	d800      	bhi.n	8000ad4 <__aeabi_ddiv+0x258>
 8000ad2:	e137      	b.n	8000d44 <__aeabi_ddiv+0x4c8>
 8000ad4:	2302      	movs	r3, #2
 8000ad6:	425b      	negs	r3, r3
 8000ad8:	469c      	mov	ip, r3
 8000ada:	4445      	add	r5, r8
 8000adc:	44e3      	add	fp, ip
 8000ade:	464b      	mov	r3, r9
 8000ae0:	1aeb      	subs	r3, r5, r3
 8000ae2:	0039      	movs	r1, r7
 8000ae4:	0018      	movs	r0, r3
 8000ae6:	9304      	str	r3, [sp, #16]
 8000ae8:	f7ff fb0e 	bl	8000108 <__udivsi3>
 8000aec:	9b01      	ldr	r3, [sp, #4]
 8000aee:	0005      	movs	r5, r0
 8000af0:	4343      	muls	r3, r0
 8000af2:	0039      	movs	r1, r7
 8000af4:	9804      	ldr	r0, [sp, #16]
 8000af6:	4699      	mov	r9, r3
 8000af8:	f7ff fb8c 	bl	8000214 <__aeabi_uidivmod>
 8000afc:	0433      	lsls	r3, r6, #16
 8000afe:	0409      	lsls	r1, r1, #16
 8000b00:	0c1b      	lsrs	r3, r3, #16
 8000b02:	430b      	orrs	r3, r1
 8000b04:	4599      	cmp	r9, r3
 8000b06:	d909      	bls.n	8000b1c <__aeabi_ddiv+0x2a0>
 8000b08:	4443      	add	r3, r8
 8000b0a:	1e6a      	subs	r2, r5, #1
 8000b0c:	4598      	cmp	r8, r3
 8000b0e:	d900      	bls.n	8000b12 <__aeabi_ddiv+0x296>
 8000b10:	e11a      	b.n	8000d48 <__aeabi_ddiv+0x4cc>
 8000b12:	4599      	cmp	r9, r3
 8000b14:	d800      	bhi.n	8000b18 <__aeabi_ddiv+0x29c>
 8000b16:	e117      	b.n	8000d48 <__aeabi_ddiv+0x4cc>
 8000b18:	3d02      	subs	r5, #2
 8000b1a:	4443      	add	r3, r8
 8000b1c:	464a      	mov	r2, r9
 8000b1e:	1a9b      	subs	r3, r3, r2
 8000b20:	465a      	mov	r2, fp
 8000b22:	0412      	lsls	r2, r2, #16
 8000b24:	432a      	orrs	r2, r5
 8000b26:	9903      	ldr	r1, [sp, #12]
 8000b28:	4693      	mov	fp, r2
 8000b2a:	0c10      	lsrs	r0, r2, #16
 8000b2c:	0c0a      	lsrs	r2, r1, #16
 8000b2e:	4691      	mov	r9, r2
 8000b30:	0409      	lsls	r1, r1, #16
 8000b32:	465a      	mov	r2, fp
 8000b34:	0c09      	lsrs	r1, r1, #16
 8000b36:	464e      	mov	r6, r9
 8000b38:	000d      	movs	r5, r1
 8000b3a:	0412      	lsls	r2, r2, #16
 8000b3c:	0c12      	lsrs	r2, r2, #16
 8000b3e:	4345      	muls	r5, r0
 8000b40:	9105      	str	r1, [sp, #20]
 8000b42:	4351      	muls	r1, r2
 8000b44:	4372      	muls	r2, r6
 8000b46:	4370      	muls	r0, r6
 8000b48:	1952      	adds	r2, r2, r5
 8000b4a:	0c0e      	lsrs	r6, r1, #16
 8000b4c:	18b2      	adds	r2, r6, r2
 8000b4e:	4295      	cmp	r5, r2
 8000b50:	d903      	bls.n	8000b5a <__aeabi_ddiv+0x2de>
 8000b52:	2580      	movs	r5, #128	; 0x80
 8000b54:	026d      	lsls	r5, r5, #9
 8000b56:	46ac      	mov	ip, r5
 8000b58:	4460      	add	r0, ip
 8000b5a:	0c15      	lsrs	r5, r2, #16
 8000b5c:	0409      	lsls	r1, r1, #16
 8000b5e:	0412      	lsls	r2, r2, #16
 8000b60:	0c09      	lsrs	r1, r1, #16
 8000b62:	1828      	adds	r0, r5, r0
 8000b64:	1852      	adds	r2, r2, r1
 8000b66:	4283      	cmp	r3, r0
 8000b68:	d200      	bcs.n	8000b6c <__aeabi_ddiv+0x2f0>
 8000b6a:	e0ce      	b.n	8000d0a <__aeabi_ddiv+0x48e>
 8000b6c:	d100      	bne.n	8000b70 <__aeabi_ddiv+0x2f4>
 8000b6e:	e0c8      	b.n	8000d02 <__aeabi_ddiv+0x486>
 8000b70:	1a1d      	subs	r5, r3, r0
 8000b72:	4653      	mov	r3, sl
 8000b74:	1a9e      	subs	r6, r3, r2
 8000b76:	45b2      	cmp	sl, r6
 8000b78:	4192      	sbcs	r2, r2
 8000b7a:	4252      	negs	r2, r2
 8000b7c:	1aab      	subs	r3, r5, r2
 8000b7e:	469a      	mov	sl, r3
 8000b80:	4598      	cmp	r8, r3
 8000b82:	d100      	bne.n	8000b86 <__aeabi_ddiv+0x30a>
 8000b84:	e117      	b.n	8000db6 <__aeabi_ddiv+0x53a>
 8000b86:	0039      	movs	r1, r7
 8000b88:	0018      	movs	r0, r3
 8000b8a:	f7ff fabd 	bl	8000108 <__udivsi3>
 8000b8e:	9b01      	ldr	r3, [sp, #4]
 8000b90:	0005      	movs	r5, r0
 8000b92:	4343      	muls	r3, r0
 8000b94:	0039      	movs	r1, r7
 8000b96:	4650      	mov	r0, sl
 8000b98:	9304      	str	r3, [sp, #16]
 8000b9a:	f7ff fb3b 	bl	8000214 <__aeabi_uidivmod>
 8000b9e:	9804      	ldr	r0, [sp, #16]
 8000ba0:	040b      	lsls	r3, r1, #16
 8000ba2:	0c31      	lsrs	r1, r6, #16
 8000ba4:	4319      	orrs	r1, r3
 8000ba6:	4288      	cmp	r0, r1
 8000ba8:	d909      	bls.n	8000bbe <__aeabi_ddiv+0x342>
 8000baa:	4441      	add	r1, r8
 8000bac:	1e6b      	subs	r3, r5, #1
 8000bae:	4588      	cmp	r8, r1
 8000bb0:	d900      	bls.n	8000bb4 <__aeabi_ddiv+0x338>
 8000bb2:	e107      	b.n	8000dc4 <__aeabi_ddiv+0x548>
 8000bb4:	4288      	cmp	r0, r1
 8000bb6:	d800      	bhi.n	8000bba <__aeabi_ddiv+0x33e>
 8000bb8:	e104      	b.n	8000dc4 <__aeabi_ddiv+0x548>
 8000bba:	3d02      	subs	r5, #2
 8000bbc:	4441      	add	r1, r8
 8000bbe:	9b04      	ldr	r3, [sp, #16]
 8000bc0:	1acb      	subs	r3, r1, r3
 8000bc2:	0018      	movs	r0, r3
 8000bc4:	0039      	movs	r1, r7
 8000bc6:	9304      	str	r3, [sp, #16]
 8000bc8:	f7ff fa9e 	bl	8000108 <__udivsi3>
 8000bcc:	9b01      	ldr	r3, [sp, #4]
 8000bce:	4682      	mov	sl, r0
 8000bd0:	4343      	muls	r3, r0
 8000bd2:	0039      	movs	r1, r7
 8000bd4:	9804      	ldr	r0, [sp, #16]
 8000bd6:	9301      	str	r3, [sp, #4]
 8000bd8:	f7ff fb1c 	bl	8000214 <__aeabi_uidivmod>
 8000bdc:	9801      	ldr	r0, [sp, #4]
 8000bde:	040b      	lsls	r3, r1, #16
 8000be0:	0431      	lsls	r1, r6, #16
 8000be2:	0c09      	lsrs	r1, r1, #16
 8000be4:	4319      	orrs	r1, r3
 8000be6:	4288      	cmp	r0, r1
 8000be8:	d90d      	bls.n	8000c06 <__aeabi_ddiv+0x38a>
 8000bea:	4653      	mov	r3, sl
 8000bec:	4441      	add	r1, r8
 8000bee:	3b01      	subs	r3, #1
 8000bf0:	4588      	cmp	r8, r1
 8000bf2:	d900      	bls.n	8000bf6 <__aeabi_ddiv+0x37a>
 8000bf4:	e0e8      	b.n	8000dc8 <__aeabi_ddiv+0x54c>
 8000bf6:	4288      	cmp	r0, r1
 8000bf8:	d800      	bhi.n	8000bfc <__aeabi_ddiv+0x380>
 8000bfa:	e0e5      	b.n	8000dc8 <__aeabi_ddiv+0x54c>
 8000bfc:	2302      	movs	r3, #2
 8000bfe:	425b      	negs	r3, r3
 8000c00:	469c      	mov	ip, r3
 8000c02:	4441      	add	r1, r8
 8000c04:	44e2      	add	sl, ip
 8000c06:	9b01      	ldr	r3, [sp, #4]
 8000c08:	042d      	lsls	r5, r5, #16
 8000c0a:	1ace      	subs	r6, r1, r3
 8000c0c:	4651      	mov	r1, sl
 8000c0e:	4329      	orrs	r1, r5
 8000c10:	9d05      	ldr	r5, [sp, #20]
 8000c12:	464f      	mov	r7, r9
 8000c14:	002a      	movs	r2, r5
 8000c16:	040b      	lsls	r3, r1, #16
 8000c18:	0c08      	lsrs	r0, r1, #16
 8000c1a:	0c1b      	lsrs	r3, r3, #16
 8000c1c:	435a      	muls	r2, r3
 8000c1e:	4345      	muls	r5, r0
 8000c20:	437b      	muls	r3, r7
 8000c22:	4378      	muls	r0, r7
 8000c24:	195b      	adds	r3, r3, r5
 8000c26:	0c17      	lsrs	r7, r2, #16
 8000c28:	18fb      	adds	r3, r7, r3
 8000c2a:	429d      	cmp	r5, r3
 8000c2c:	d903      	bls.n	8000c36 <__aeabi_ddiv+0x3ba>
 8000c2e:	2580      	movs	r5, #128	; 0x80
 8000c30:	026d      	lsls	r5, r5, #9
 8000c32:	46ac      	mov	ip, r5
 8000c34:	4460      	add	r0, ip
 8000c36:	0c1d      	lsrs	r5, r3, #16
 8000c38:	0412      	lsls	r2, r2, #16
 8000c3a:	041b      	lsls	r3, r3, #16
 8000c3c:	0c12      	lsrs	r2, r2, #16
 8000c3e:	1828      	adds	r0, r5, r0
 8000c40:	189b      	adds	r3, r3, r2
 8000c42:	4286      	cmp	r6, r0
 8000c44:	d200      	bcs.n	8000c48 <__aeabi_ddiv+0x3cc>
 8000c46:	e093      	b.n	8000d70 <__aeabi_ddiv+0x4f4>
 8000c48:	d100      	bne.n	8000c4c <__aeabi_ddiv+0x3d0>
 8000c4a:	e08e      	b.n	8000d6a <__aeabi_ddiv+0x4ee>
 8000c4c:	2301      	movs	r3, #1
 8000c4e:	4319      	orrs	r1, r3
 8000c50:	4ba0      	ldr	r3, [pc, #640]	; (8000ed4 <__aeabi_ddiv+0x658>)
 8000c52:	18e3      	adds	r3, r4, r3
 8000c54:	2b00      	cmp	r3, #0
 8000c56:	dc00      	bgt.n	8000c5a <__aeabi_ddiv+0x3de>
 8000c58:	e099      	b.n	8000d8e <__aeabi_ddiv+0x512>
 8000c5a:	074a      	lsls	r2, r1, #29
 8000c5c:	d000      	beq.n	8000c60 <__aeabi_ddiv+0x3e4>
 8000c5e:	e09e      	b.n	8000d9e <__aeabi_ddiv+0x522>
 8000c60:	465a      	mov	r2, fp
 8000c62:	01d2      	lsls	r2, r2, #7
 8000c64:	d506      	bpl.n	8000c74 <__aeabi_ddiv+0x3f8>
 8000c66:	465a      	mov	r2, fp
 8000c68:	4b9b      	ldr	r3, [pc, #620]	; (8000ed8 <__aeabi_ddiv+0x65c>)
 8000c6a:	401a      	ands	r2, r3
 8000c6c:	2380      	movs	r3, #128	; 0x80
 8000c6e:	4693      	mov	fp, r2
 8000c70:	00db      	lsls	r3, r3, #3
 8000c72:	18e3      	adds	r3, r4, r3
 8000c74:	4a99      	ldr	r2, [pc, #612]	; (8000edc <__aeabi_ddiv+0x660>)
 8000c76:	4293      	cmp	r3, r2
 8000c78:	dd68      	ble.n	8000d4c <__aeabi_ddiv+0x4d0>
 8000c7a:	2301      	movs	r3, #1
 8000c7c:	9a02      	ldr	r2, [sp, #8]
 8000c7e:	4c98      	ldr	r4, [pc, #608]	; (8000ee0 <__aeabi_ddiv+0x664>)
 8000c80:	401a      	ands	r2, r3
 8000c82:	2300      	movs	r3, #0
 8000c84:	4694      	mov	ip, r2
 8000c86:	4698      	mov	r8, r3
 8000c88:	2200      	movs	r2, #0
 8000c8a:	e6c5      	b.n	8000a18 <__aeabi_ddiv+0x19c>
 8000c8c:	2280      	movs	r2, #128	; 0x80
 8000c8e:	464b      	mov	r3, r9
 8000c90:	0312      	lsls	r2, r2, #12
 8000c92:	4213      	tst	r3, r2
 8000c94:	d00a      	beq.n	8000cac <__aeabi_ddiv+0x430>
 8000c96:	465b      	mov	r3, fp
 8000c98:	4213      	tst	r3, r2
 8000c9a:	d106      	bne.n	8000caa <__aeabi_ddiv+0x42e>
 8000c9c:	431a      	orrs	r2, r3
 8000c9e:	0312      	lsls	r2, r2, #12
 8000ca0:	0b12      	lsrs	r2, r2, #12
 8000ca2:	46ac      	mov	ip, r5
 8000ca4:	4688      	mov	r8, r1
 8000ca6:	4c8e      	ldr	r4, [pc, #568]	; (8000ee0 <__aeabi_ddiv+0x664>)
 8000ca8:	e6b6      	b.n	8000a18 <__aeabi_ddiv+0x19c>
 8000caa:	464b      	mov	r3, r9
 8000cac:	431a      	orrs	r2, r3
 8000cae:	0312      	lsls	r2, r2, #12
 8000cb0:	0b12      	lsrs	r2, r2, #12
 8000cb2:	46bc      	mov	ip, r7
 8000cb4:	4c8a      	ldr	r4, [pc, #552]	; (8000ee0 <__aeabi_ddiv+0x664>)
 8000cb6:	e6af      	b.n	8000a18 <__aeabi_ddiv+0x19c>
 8000cb8:	0003      	movs	r3, r0
 8000cba:	465a      	mov	r2, fp
 8000cbc:	3b28      	subs	r3, #40	; 0x28
 8000cbe:	409a      	lsls	r2, r3
 8000cc0:	2300      	movs	r3, #0
 8000cc2:	4691      	mov	r9, r2
 8000cc4:	4698      	mov	r8, r3
 8000cc6:	e657      	b.n	8000978 <__aeabi_ddiv+0xfc>
 8000cc8:	4658      	mov	r0, fp
 8000cca:	f000 fcd5 	bl	8001678 <__clzsi2>
 8000cce:	3020      	adds	r0, #32
 8000cd0:	e640      	b.n	8000954 <__aeabi_ddiv+0xd8>
 8000cd2:	0003      	movs	r3, r0
 8000cd4:	4652      	mov	r2, sl
 8000cd6:	3b28      	subs	r3, #40	; 0x28
 8000cd8:	409a      	lsls	r2, r3
 8000cda:	2100      	movs	r1, #0
 8000cdc:	4693      	mov	fp, r2
 8000cde:	e677      	b.n	80009d0 <__aeabi_ddiv+0x154>
 8000ce0:	f000 fcca 	bl	8001678 <__clzsi2>
 8000ce4:	3020      	adds	r0, #32
 8000ce6:	e65f      	b.n	80009a8 <__aeabi_ddiv+0x12c>
 8000ce8:	4588      	cmp	r8, r1
 8000cea:	d200      	bcs.n	8000cee <__aeabi_ddiv+0x472>
 8000cec:	e6c7      	b.n	8000a7e <__aeabi_ddiv+0x202>
 8000cee:	464b      	mov	r3, r9
 8000cf0:	07de      	lsls	r6, r3, #31
 8000cf2:	085d      	lsrs	r5, r3, #1
 8000cf4:	4643      	mov	r3, r8
 8000cf6:	085b      	lsrs	r3, r3, #1
 8000cf8:	431e      	orrs	r6, r3
 8000cfa:	4643      	mov	r3, r8
 8000cfc:	07db      	lsls	r3, r3, #31
 8000cfe:	469a      	mov	sl, r3
 8000d00:	e6c2      	b.n	8000a88 <__aeabi_ddiv+0x20c>
 8000d02:	2500      	movs	r5, #0
 8000d04:	4592      	cmp	sl, r2
 8000d06:	d300      	bcc.n	8000d0a <__aeabi_ddiv+0x48e>
 8000d08:	e733      	b.n	8000b72 <__aeabi_ddiv+0x2f6>
 8000d0a:	9e03      	ldr	r6, [sp, #12]
 8000d0c:	4659      	mov	r1, fp
 8000d0e:	46b4      	mov	ip, r6
 8000d10:	44e2      	add	sl, ip
 8000d12:	45b2      	cmp	sl, r6
 8000d14:	41ad      	sbcs	r5, r5
 8000d16:	426d      	negs	r5, r5
 8000d18:	4445      	add	r5, r8
 8000d1a:	18eb      	adds	r3, r5, r3
 8000d1c:	3901      	subs	r1, #1
 8000d1e:	4598      	cmp	r8, r3
 8000d20:	d207      	bcs.n	8000d32 <__aeabi_ddiv+0x4b6>
 8000d22:	4298      	cmp	r0, r3
 8000d24:	d900      	bls.n	8000d28 <__aeabi_ddiv+0x4ac>
 8000d26:	e07f      	b.n	8000e28 <__aeabi_ddiv+0x5ac>
 8000d28:	d100      	bne.n	8000d2c <__aeabi_ddiv+0x4b0>
 8000d2a:	e0bc      	b.n	8000ea6 <__aeabi_ddiv+0x62a>
 8000d2c:	1a1d      	subs	r5, r3, r0
 8000d2e:	468b      	mov	fp, r1
 8000d30:	e71f      	b.n	8000b72 <__aeabi_ddiv+0x2f6>
 8000d32:	4598      	cmp	r8, r3
 8000d34:	d1fa      	bne.n	8000d2c <__aeabi_ddiv+0x4b0>
 8000d36:	9d03      	ldr	r5, [sp, #12]
 8000d38:	4555      	cmp	r5, sl
 8000d3a:	d9f2      	bls.n	8000d22 <__aeabi_ddiv+0x4a6>
 8000d3c:	4643      	mov	r3, r8
 8000d3e:	468b      	mov	fp, r1
 8000d40:	1a1d      	subs	r5, r3, r0
 8000d42:	e716      	b.n	8000b72 <__aeabi_ddiv+0x2f6>
 8000d44:	469b      	mov	fp, r3
 8000d46:	e6ca      	b.n	8000ade <__aeabi_ddiv+0x262>
 8000d48:	0015      	movs	r5, r2
 8000d4a:	e6e7      	b.n	8000b1c <__aeabi_ddiv+0x2a0>
 8000d4c:	465a      	mov	r2, fp
 8000d4e:	08c9      	lsrs	r1, r1, #3
 8000d50:	0752      	lsls	r2, r2, #29
 8000d52:	430a      	orrs	r2, r1
 8000d54:	055b      	lsls	r3, r3, #21
 8000d56:	4690      	mov	r8, r2
 8000d58:	0d5c      	lsrs	r4, r3, #21
 8000d5a:	465a      	mov	r2, fp
 8000d5c:	2301      	movs	r3, #1
 8000d5e:	9902      	ldr	r1, [sp, #8]
 8000d60:	0252      	lsls	r2, r2, #9
 8000d62:	4019      	ands	r1, r3
 8000d64:	0b12      	lsrs	r2, r2, #12
 8000d66:	468c      	mov	ip, r1
 8000d68:	e656      	b.n	8000a18 <__aeabi_ddiv+0x19c>
 8000d6a:	2b00      	cmp	r3, #0
 8000d6c:	d100      	bne.n	8000d70 <__aeabi_ddiv+0x4f4>
 8000d6e:	e76f      	b.n	8000c50 <__aeabi_ddiv+0x3d4>
 8000d70:	4446      	add	r6, r8
 8000d72:	1e4a      	subs	r2, r1, #1
 8000d74:	45b0      	cmp	r8, r6
 8000d76:	d929      	bls.n	8000dcc <__aeabi_ddiv+0x550>
 8000d78:	0011      	movs	r1, r2
 8000d7a:	4286      	cmp	r6, r0
 8000d7c:	d000      	beq.n	8000d80 <__aeabi_ddiv+0x504>
 8000d7e:	e765      	b.n	8000c4c <__aeabi_ddiv+0x3d0>
 8000d80:	9a03      	ldr	r2, [sp, #12]
 8000d82:	4293      	cmp	r3, r2
 8000d84:	d000      	beq.n	8000d88 <__aeabi_ddiv+0x50c>
 8000d86:	e761      	b.n	8000c4c <__aeabi_ddiv+0x3d0>
 8000d88:	e762      	b.n	8000c50 <__aeabi_ddiv+0x3d4>
 8000d8a:	2101      	movs	r1, #1
 8000d8c:	4249      	negs	r1, r1
 8000d8e:	2001      	movs	r0, #1
 8000d90:	1ac2      	subs	r2, r0, r3
 8000d92:	2a38      	cmp	r2, #56	; 0x38
 8000d94:	dd21      	ble.n	8000dda <__aeabi_ddiv+0x55e>
 8000d96:	9b02      	ldr	r3, [sp, #8]
 8000d98:	4003      	ands	r3, r0
 8000d9a:	469c      	mov	ip, r3
 8000d9c:	e638      	b.n	8000a10 <__aeabi_ddiv+0x194>
 8000d9e:	220f      	movs	r2, #15
 8000da0:	400a      	ands	r2, r1
 8000da2:	2a04      	cmp	r2, #4
 8000da4:	d100      	bne.n	8000da8 <__aeabi_ddiv+0x52c>
 8000da6:	e75b      	b.n	8000c60 <__aeabi_ddiv+0x3e4>
 8000da8:	000a      	movs	r2, r1
 8000daa:	1d11      	adds	r1, r2, #4
 8000dac:	4291      	cmp	r1, r2
 8000dae:	4192      	sbcs	r2, r2
 8000db0:	4252      	negs	r2, r2
 8000db2:	4493      	add	fp, r2
 8000db4:	e754      	b.n	8000c60 <__aeabi_ddiv+0x3e4>
 8000db6:	4b47      	ldr	r3, [pc, #284]	; (8000ed4 <__aeabi_ddiv+0x658>)
 8000db8:	18e3      	adds	r3, r4, r3
 8000dba:	2b00      	cmp	r3, #0
 8000dbc:	dde5      	ble.n	8000d8a <__aeabi_ddiv+0x50e>
 8000dbe:	2201      	movs	r2, #1
 8000dc0:	4252      	negs	r2, r2
 8000dc2:	e7f2      	b.n	8000daa <__aeabi_ddiv+0x52e>
 8000dc4:	001d      	movs	r5, r3
 8000dc6:	e6fa      	b.n	8000bbe <__aeabi_ddiv+0x342>
 8000dc8:	469a      	mov	sl, r3
 8000dca:	e71c      	b.n	8000c06 <__aeabi_ddiv+0x38a>
 8000dcc:	42b0      	cmp	r0, r6
 8000dce:	d839      	bhi.n	8000e44 <__aeabi_ddiv+0x5c8>
 8000dd0:	d06e      	beq.n	8000eb0 <__aeabi_ddiv+0x634>
 8000dd2:	0011      	movs	r1, r2
 8000dd4:	e73a      	b.n	8000c4c <__aeabi_ddiv+0x3d0>
 8000dd6:	9302      	str	r3, [sp, #8]
 8000dd8:	e73a      	b.n	8000c50 <__aeabi_ddiv+0x3d4>
 8000dda:	2a1f      	cmp	r2, #31
 8000ddc:	dc3c      	bgt.n	8000e58 <__aeabi_ddiv+0x5dc>
 8000dde:	2320      	movs	r3, #32
 8000de0:	1a9b      	subs	r3, r3, r2
 8000de2:	000c      	movs	r4, r1
 8000de4:	4658      	mov	r0, fp
 8000de6:	4099      	lsls	r1, r3
 8000de8:	4098      	lsls	r0, r3
 8000dea:	1e4b      	subs	r3, r1, #1
 8000dec:	4199      	sbcs	r1, r3
 8000dee:	465b      	mov	r3, fp
 8000df0:	40d4      	lsrs	r4, r2
 8000df2:	40d3      	lsrs	r3, r2
 8000df4:	4320      	orrs	r0, r4
 8000df6:	4308      	orrs	r0, r1
 8000df8:	001a      	movs	r2, r3
 8000dfa:	0743      	lsls	r3, r0, #29
 8000dfc:	d009      	beq.n	8000e12 <__aeabi_ddiv+0x596>
 8000dfe:	230f      	movs	r3, #15
 8000e00:	4003      	ands	r3, r0
 8000e02:	2b04      	cmp	r3, #4
 8000e04:	d005      	beq.n	8000e12 <__aeabi_ddiv+0x596>
 8000e06:	0001      	movs	r1, r0
 8000e08:	1d08      	adds	r0, r1, #4
 8000e0a:	4288      	cmp	r0, r1
 8000e0c:	419b      	sbcs	r3, r3
 8000e0e:	425b      	negs	r3, r3
 8000e10:	18d2      	adds	r2, r2, r3
 8000e12:	0213      	lsls	r3, r2, #8
 8000e14:	d53a      	bpl.n	8000e8c <__aeabi_ddiv+0x610>
 8000e16:	2301      	movs	r3, #1
 8000e18:	9a02      	ldr	r2, [sp, #8]
 8000e1a:	2401      	movs	r4, #1
 8000e1c:	401a      	ands	r2, r3
 8000e1e:	2300      	movs	r3, #0
 8000e20:	4694      	mov	ip, r2
 8000e22:	4698      	mov	r8, r3
 8000e24:	2200      	movs	r2, #0
 8000e26:	e5f7      	b.n	8000a18 <__aeabi_ddiv+0x19c>
 8000e28:	2102      	movs	r1, #2
 8000e2a:	4249      	negs	r1, r1
 8000e2c:	468c      	mov	ip, r1
 8000e2e:	9d03      	ldr	r5, [sp, #12]
 8000e30:	44e3      	add	fp, ip
 8000e32:	46ac      	mov	ip, r5
 8000e34:	44e2      	add	sl, ip
 8000e36:	45aa      	cmp	sl, r5
 8000e38:	41ad      	sbcs	r5, r5
 8000e3a:	426d      	negs	r5, r5
 8000e3c:	4445      	add	r5, r8
 8000e3e:	18ed      	adds	r5, r5, r3
 8000e40:	1a2d      	subs	r5, r5, r0
 8000e42:	e696      	b.n	8000b72 <__aeabi_ddiv+0x2f6>
 8000e44:	1e8a      	subs	r2, r1, #2
 8000e46:	9903      	ldr	r1, [sp, #12]
 8000e48:	004d      	lsls	r5, r1, #1
 8000e4a:	428d      	cmp	r5, r1
 8000e4c:	4189      	sbcs	r1, r1
 8000e4e:	4249      	negs	r1, r1
 8000e50:	4441      	add	r1, r8
 8000e52:	1876      	adds	r6, r6, r1
 8000e54:	9503      	str	r5, [sp, #12]
 8000e56:	e78f      	b.n	8000d78 <__aeabi_ddiv+0x4fc>
 8000e58:	201f      	movs	r0, #31
 8000e5a:	4240      	negs	r0, r0
 8000e5c:	1ac3      	subs	r3, r0, r3
 8000e5e:	4658      	mov	r0, fp
 8000e60:	40d8      	lsrs	r0, r3
 8000e62:	0003      	movs	r3, r0
 8000e64:	2a20      	cmp	r2, #32
 8000e66:	d028      	beq.n	8000eba <__aeabi_ddiv+0x63e>
 8000e68:	2040      	movs	r0, #64	; 0x40
 8000e6a:	465d      	mov	r5, fp
 8000e6c:	1a82      	subs	r2, r0, r2
 8000e6e:	4095      	lsls	r5, r2
 8000e70:	4329      	orrs	r1, r5
 8000e72:	1e4a      	subs	r2, r1, #1
 8000e74:	4191      	sbcs	r1, r2
 8000e76:	4319      	orrs	r1, r3
 8000e78:	2307      	movs	r3, #7
 8000e7a:	2200      	movs	r2, #0
 8000e7c:	400b      	ands	r3, r1
 8000e7e:	d009      	beq.n	8000e94 <__aeabi_ddiv+0x618>
 8000e80:	230f      	movs	r3, #15
 8000e82:	2200      	movs	r2, #0
 8000e84:	400b      	ands	r3, r1
 8000e86:	0008      	movs	r0, r1
 8000e88:	2b04      	cmp	r3, #4
 8000e8a:	d1bd      	bne.n	8000e08 <__aeabi_ddiv+0x58c>
 8000e8c:	0001      	movs	r1, r0
 8000e8e:	0753      	lsls	r3, r2, #29
 8000e90:	0252      	lsls	r2, r2, #9
 8000e92:	0b12      	lsrs	r2, r2, #12
 8000e94:	08c9      	lsrs	r1, r1, #3
 8000e96:	4319      	orrs	r1, r3
 8000e98:	2301      	movs	r3, #1
 8000e9a:	4688      	mov	r8, r1
 8000e9c:	9902      	ldr	r1, [sp, #8]
 8000e9e:	2400      	movs	r4, #0
 8000ea0:	4019      	ands	r1, r3
 8000ea2:	468c      	mov	ip, r1
 8000ea4:	e5b8      	b.n	8000a18 <__aeabi_ddiv+0x19c>
 8000ea6:	4552      	cmp	r2, sl
 8000ea8:	d8be      	bhi.n	8000e28 <__aeabi_ddiv+0x5ac>
 8000eaa:	468b      	mov	fp, r1
 8000eac:	2500      	movs	r5, #0
 8000eae:	e660      	b.n	8000b72 <__aeabi_ddiv+0x2f6>
 8000eb0:	9d03      	ldr	r5, [sp, #12]
 8000eb2:	429d      	cmp	r5, r3
 8000eb4:	d3c6      	bcc.n	8000e44 <__aeabi_ddiv+0x5c8>
 8000eb6:	0011      	movs	r1, r2
 8000eb8:	e762      	b.n	8000d80 <__aeabi_ddiv+0x504>
 8000eba:	2500      	movs	r5, #0
 8000ebc:	e7d8      	b.n	8000e70 <__aeabi_ddiv+0x5f4>
 8000ebe:	2280      	movs	r2, #128	; 0x80
 8000ec0:	465b      	mov	r3, fp
 8000ec2:	0312      	lsls	r2, r2, #12
 8000ec4:	431a      	orrs	r2, r3
 8000ec6:	9b01      	ldr	r3, [sp, #4]
 8000ec8:	0312      	lsls	r2, r2, #12
 8000eca:	0b12      	lsrs	r2, r2, #12
 8000ecc:	469c      	mov	ip, r3
 8000ece:	4688      	mov	r8, r1
 8000ed0:	4c03      	ldr	r4, [pc, #12]	; (8000ee0 <__aeabi_ddiv+0x664>)
 8000ed2:	e5a1      	b.n	8000a18 <__aeabi_ddiv+0x19c>
 8000ed4:	000003ff 	.word	0x000003ff
 8000ed8:	feffffff 	.word	0xfeffffff
 8000edc:	000007fe 	.word	0x000007fe
 8000ee0:	000007ff 	.word	0x000007ff

08000ee4 <__aeabi_dsub>:
 8000ee4:	b5f0      	push	{r4, r5, r6, r7, lr}
 8000ee6:	4646      	mov	r6, r8
 8000ee8:	46d6      	mov	lr, sl
 8000eea:	464f      	mov	r7, r9
 8000eec:	030c      	lsls	r4, r1, #12
 8000eee:	b5c0      	push	{r6, r7, lr}
 8000ef0:	0fcd      	lsrs	r5, r1, #31
 8000ef2:	004e      	lsls	r6, r1, #1
 8000ef4:	0a61      	lsrs	r1, r4, #9
 8000ef6:	0f44      	lsrs	r4, r0, #29
 8000ef8:	430c      	orrs	r4, r1
 8000efa:	00c1      	lsls	r1, r0, #3
 8000efc:	0058      	lsls	r0, r3, #1
 8000efe:	0d40      	lsrs	r0, r0, #21
 8000f00:	4684      	mov	ip, r0
 8000f02:	468a      	mov	sl, r1
 8000f04:	000f      	movs	r7, r1
 8000f06:	0319      	lsls	r1, r3, #12
 8000f08:	0f50      	lsrs	r0, r2, #29
 8000f0a:	0a49      	lsrs	r1, r1, #9
 8000f0c:	4301      	orrs	r1, r0
 8000f0e:	48c6      	ldr	r0, [pc, #792]	; (8001228 <__aeabi_dsub+0x344>)
 8000f10:	0d76      	lsrs	r6, r6, #21
 8000f12:	46a8      	mov	r8, r5
 8000f14:	0fdb      	lsrs	r3, r3, #31
 8000f16:	00d2      	lsls	r2, r2, #3
 8000f18:	4584      	cmp	ip, r0
 8000f1a:	d100      	bne.n	8000f1e <__aeabi_dsub+0x3a>
 8000f1c:	e0d8      	b.n	80010d0 <__aeabi_dsub+0x1ec>
 8000f1e:	2001      	movs	r0, #1
 8000f20:	4043      	eors	r3, r0
 8000f22:	42ab      	cmp	r3, r5
 8000f24:	d100      	bne.n	8000f28 <__aeabi_dsub+0x44>
 8000f26:	e0a6      	b.n	8001076 <__aeabi_dsub+0x192>
 8000f28:	4660      	mov	r0, ip
 8000f2a:	1a35      	subs	r5, r6, r0
 8000f2c:	2d00      	cmp	r5, #0
 8000f2e:	dc00      	bgt.n	8000f32 <__aeabi_dsub+0x4e>
 8000f30:	e105      	b.n	800113e <__aeabi_dsub+0x25a>
 8000f32:	2800      	cmp	r0, #0
 8000f34:	d110      	bne.n	8000f58 <__aeabi_dsub+0x74>
 8000f36:	000b      	movs	r3, r1
 8000f38:	4313      	orrs	r3, r2
 8000f3a:	d100      	bne.n	8000f3e <__aeabi_dsub+0x5a>
 8000f3c:	e0d7      	b.n	80010ee <__aeabi_dsub+0x20a>
 8000f3e:	1e6b      	subs	r3, r5, #1
 8000f40:	2b00      	cmp	r3, #0
 8000f42:	d000      	beq.n	8000f46 <__aeabi_dsub+0x62>
 8000f44:	e14b      	b.n	80011de <__aeabi_dsub+0x2fa>
 8000f46:	4653      	mov	r3, sl
 8000f48:	1a9f      	subs	r7, r3, r2
 8000f4a:	45ba      	cmp	sl, r7
 8000f4c:	4180      	sbcs	r0, r0
 8000f4e:	1a64      	subs	r4, r4, r1
 8000f50:	4240      	negs	r0, r0
 8000f52:	1a24      	subs	r4, r4, r0
 8000f54:	2601      	movs	r6, #1
 8000f56:	e01e      	b.n	8000f96 <__aeabi_dsub+0xb2>
 8000f58:	4bb3      	ldr	r3, [pc, #716]	; (8001228 <__aeabi_dsub+0x344>)
 8000f5a:	429e      	cmp	r6, r3
 8000f5c:	d048      	beq.n	8000ff0 <__aeabi_dsub+0x10c>
 8000f5e:	2380      	movs	r3, #128	; 0x80
 8000f60:	041b      	lsls	r3, r3, #16
 8000f62:	4319      	orrs	r1, r3
 8000f64:	2d38      	cmp	r5, #56	; 0x38
 8000f66:	dd00      	ble.n	8000f6a <__aeabi_dsub+0x86>
 8000f68:	e119      	b.n	800119e <__aeabi_dsub+0x2ba>
 8000f6a:	2d1f      	cmp	r5, #31
 8000f6c:	dd00      	ble.n	8000f70 <__aeabi_dsub+0x8c>
 8000f6e:	e14c      	b.n	800120a <__aeabi_dsub+0x326>
 8000f70:	2320      	movs	r3, #32
 8000f72:	000f      	movs	r7, r1
 8000f74:	1b5b      	subs	r3, r3, r5
 8000f76:	0010      	movs	r0, r2
 8000f78:	409a      	lsls	r2, r3
 8000f7a:	409f      	lsls	r7, r3
 8000f7c:	40e8      	lsrs	r0, r5
 8000f7e:	1e53      	subs	r3, r2, #1
 8000f80:	419a      	sbcs	r2, r3
 8000f82:	40e9      	lsrs	r1, r5
 8000f84:	4307      	orrs	r7, r0
 8000f86:	4317      	orrs	r7, r2
 8000f88:	4653      	mov	r3, sl
 8000f8a:	1bdf      	subs	r7, r3, r7
 8000f8c:	1a61      	subs	r1, r4, r1
 8000f8e:	45ba      	cmp	sl, r7
 8000f90:	41a4      	sbcs	r4, r4
 8000f92:	4264      	negs	r4, r4
 8000f94:	1b0c      	subs	r4, r1, r4
 8000f96:	0223      	lsls	r3, r4, #8
 8000f98:	d400      	bmi.n	8000f9c <__aeabi_dsub+0xb8>
 8000f9a:	e0c5      	b.n	8001128 <__aeabi_dsub+0x244>
 8000f9c:	0264      	lsls	r4, r4, #9
 8000f9e:	0a65      	lsrs	r5, r4, #9
 8000fa0:	2d00      	cmp	r5, #0
 8000fa2:	d100      	bne.n	8000fa6 <__aeabi_dsub+0xc2>
 8000fa4:	e0f6      	b.n	8001194 <__aeabi_dsub+0x2b0>
 8000fa6:	0028      	movs	r0, r5
 8000fa8:	f000 fb66 	bl	8001678 <__clzsi2>
 8000fac:	0003      	movs	r3, r0
 8000fae:	3b08      	subs	r3, #8
 8000fb0:	2b1f      	cmp	r3, #31
 8000fb2:	dd00      	ble.n	8000fb6 <__aeabi_dsub+0xd2>
 8000fb4:	e0e9      	b.n	800118a <__aeabi_dsub+0x2a6>
 8000fb6:	2220      	movs	r2, #32
 8000fb8:	003c      	movs	r4, r7
 8000fba:	1ad2      	subs	r2, r2, r3
 8000fbc:	409d      	lsls	r5, r3
 8000fbe:	40d4      	lsrs	r4, r2
 8000fc0:	409f      	lsls	r7, r3
 8000fc2:	4325      	orrs	r5, r4
 8000fc4:	429e      	cmp	r6, r3
 8000fc6:	dd00      	ble.n	8000fca <__aeabi_dsub+0xe6>
 8000fc8:	e0db      	b.n	8001182 <__aeabi_dsub+0x29e>
 8000fca:	1b9e      	subs	r6, r3, r6
 8000fcc:	1c73      	adds	r3, r6, #1
 8000fce:	2b1f      	cmp	r3, #31
 8000fd0:	dd00      	ble.n	8000fd4 <__aeabi_dsub+0xf0>
 8000fd2:	e10a      	b.n	80011ea <__aeabi_dsub+0x306>
 8000fd4:	2220      	movs	r2, #32
 8000fd6:	0038      	movs	r0, r7
 8000fd8:	1ad2      	subs	r2, r2, r3
 8000fda:	0029      	movs	r1, r5
 8000fdc:	4097      	lsls	r7, r2
 8000fde:	002c      	movs	r4, r5
 8000fe0:	4091      	lsls	r1, r2
 8000fe2:	40d8      	lsrs	r0, r3
 8000fe4:	1e7a      	subs	r2, r7, #1
 8000fe6:	4197      	sbcs	r7, r2
 8000fe8:	40dc      	lsrs	r4, r3
 8000fea:	2600      	movs	r6, #0
 8000fec:	4301      	orrs	r1, r0
 8000fee:	430f      	orrs	r7, r1
 8000ff0:	077b      	lsls	r3, r7, #29
 8000ff2:	d009      	beq.n	8001008 <__aeabi_dsub+0x124>
 8000ff4:	230f      	movs	r3, #15
 8000ff6:	403b      	ands	r3, r7
 8000ff8:	2b04      	cmp	r3, #4
 8000ffa:	d005      	beq.n	8001008 <__aeabi_dsub+0x124>
 8000ffc:	1d3b      	adds	r3, r7, #4
 8000ffe:	42bb      	cmp	r3, r7
 8001000:	41bf      	sbcs	r7, r7
 8001002:	427f      	negs	r7, r7
 8001004:	19e4      	adds	r4, r4, r7
 8001006:	001f      	movs	r7, r3
 8001008:	0223      	lsls	r3, r4, #8
 800100a:	d525      	bpl.n	8001058 <__aeabi_dsub+0x174>
 800100c:	4b86      	ldr	r3, [pc, #536]	; (8001228 <__aeabi_dsub+0x344>)
 800100e:	3601      	adds	r6, #1
 8001010:	429e      	cmp	r6, r3
 8001012:	d100      	bne.n	8001016 <__aeabi_dsub+0x132>
 8001014:	e0af      	b.n	8001176 <__aeabi_dsub+0x292>
 8001016:	4b85      	ldr	r3, [pc, #532]	; (800122c <__aeabi_dsub+0x348>)
 8001018:	2501      	movs	r5, #1
 800101a:	401c      	ands	r4, r3
 800101c:	4643      	mov	r3, r8
 800101e:	0762      	lsls	r2, r4, #29
 8001020:	08ff      	lsrs	r7, r7, #3
 8001022:	0264      	lsls	r4, r4, #9
 8001024:	0576      	lsls	r6, r6, #21
 8001026:	4317      	orrs	r7, r2
 8001028:	0b24      	lsrs	r4, r4, #12
 800102a:	0d76      	lsrs	r6, r6, #21
 800102c:	401d      	ands	r5, r3
 800102e:	2100      	movs	r1, #0
 8001030:	0324      	lsls	r4, r4, #12
 8001032:	0b23      	lsrs	r3, r4, #12
 8001034:	0d0c      	lsrs	r4, r1, #20
 8001036:	4a7e      	ldr	r2, [pc, #504]	; (8001230 <__aeabi_dsub+0x34c>)
 8001038:	0524      	lsls	r4, r4, #20
 800103a:	431c      	orrs	r4, r3
 800103c:	4014      	ands	r4, r2
 800103e:	0533      	lsls	r3, r6, #20
 8001040:	4323      	orrs	r3, r4
 8001042:	005b      	lsls	r3, r3, #1
 8001044:	07ed      	lsls	r5, r5, #31
 8001046:	085b      	lsrs	r3, r3, #1
 8001048:	432b      	orrs	r3, r5
 800104a:	0038      	movs	r0, r7
 800104c:	0019      	movs	r1, r3
 800104e:	bc1c      	pop	{r2, r3, r4}
 8001050:	4690      	mov	r8, r2
 8001052:	4699      	mov	r9, r3
 8001054:	46a2      	mov	sl, r4
 8001056:	bdf0      	pop	{r4, r5, r6, r7, pc}
 8001058:	2501      	movs	r5, #1
 800105a:	4643      	mov	r3, r8
 800105c:	0762      	lsls	r2, r4, #29
 800105e:	08ff      	lsrs	r7, r7, #3
 8001060:	4317      	orrs	r7, r2
 8001062:	08e4      	lsrs	r4, r4, #3
 8001064:	401d      	ands	r5, r3
 8001066:	4b70      	ldr	r3, [pc, #448]	; (8001228 <__aeabi_dsub+0x344>)
 8001068:	429e      	cmp	r6, r3
 800106a:	d036      	beq.n	80010da <__aeabi_dsub+0x1f6>
 800106c:	0324      	lsls	r4, r4, #12
 800106e:	0576      	lsls	r6, r6, #21
 8001070:	0b24      	lsrs	r4, r4, #12
 8001072:	0d76      	lsrs	r6, r6, #21
 8001074:	e7db      	b.n	800102e <__aeabi_dsub+0x14a>
 8001076:	4663      	mov	r3, ip
 8001078:	1af3      	subs	r3, r6, r3
 800107a:	2b00      	cmp	r3, #0
 800107c:	dc00      	bgt.n	8001080 <__aeabi_dsub+0x19c>
 800107e:	e094      	b.n	80011aa <__aeabi_dsub+0x2c6>
 8001080:	4660      	mov	r0, ip
 8001082:	2800      	cmp	r0, #0
 8001084:	d035      	beq.n	80010f2 <__aeabi_dsub+0x20e>
 8001086:	4868      	ldr	r0, [pc, #416]	; (8001228 <__aeabi_dsub+0x344>)
 8001088:	4286      	cmp	r6, r0
 800108a:	d0b1      	beq.n	8000ff0 <__aeabi_dsub+0x10c>
 800108c:	2780      	movs	r7, #128	; 0x80
 800108e:	043f      	lsls	r7, r7, #16
 8001090:	4339      	orrs	r1, r7
 8001092:	2b38      	cmp	r3, #56	; 0x38
 8001094:	dc00      	bgt.n	8001098 <__aeabi_dsub+0x1b4>
 8001096:	e0fd      	b.n	8001294 <__aeabi_dsub+0x3b0>
 8001098:	430a      	orrs	r2, r1
 800109a:	0017      	movs	r7, r2
 800109c:	2100      	movs	r1, #0
 800109e:	1e7a      	subs	r2, r7, #1
 80010a0:	4197      	sbcs	r7, r2
 80010a2:	4457      	add	r7, sl
 80010a4:	4557      	cmp	r7, sl
 80010a6:	4180      	sbcs	r0, r0
 80010a8:	1909      	adds	r1, r1, r4
 80010aa:	4244      	negs	r4, r0
 80010ac:	190c      	adds	r4, r1, r4
 80010ae:	0223      	lsls	r3, r4, #8
 80010b0:	d53a      	bpl.n	8001128 <__aeabi_dsub+0x244>
 80010b2:	4b5d      	ldr	r3, [pc, #372]	; (8001228 <__aeabi_dsub+0x344>)
 80010b4:	3601      	adds	r6, #1
 80010b6:	429e      	cmp	r6, r3
 80010b8:	d100      	bne.n	80010bc <__aeabi_dsub+0x1d8>
 80010ba:	e14b      	b.n	8001354 <__aeabi_dsub+0x470>
 80010bc:	2201      	movs	r2, #1
 80010be:	4b5b      	ldr	r3, [pc, #364]	; (800122c <__aeabi_dsub+0x348>)
 80010c0:	401c      	ands	r4, r3
 80010c2:	087b      	lsrs	r3, r7, #1
 80010c4:	4017      	ands	r7, r2
 80010c6:	431f      	orrs	r7, r3
 80010c8:	07e2      	lsls	r2, r4, #31
 80010ca:	4317      	orrs	r7, r2
 80010cc:	0864      	lsrs	r4, r4, #1
 80010ce:	e78f      	b.n	8000ff0 <__aeabi_dsub+0x10c>
 80010d0:	0008      	movs	r0, r1
 80010d2:	4310      	orrs	r0, r2
 80010d4:	d000      	beq.n	80010d8 <__aeabi_dsub+0x1f4>
 80010d6:	e724      	b.n	8000f22 <__aeabi_dsub+0x3e>
 80010d8:	e721      	b.n	8000f1e <__aeabi_dsub+0x3a>
 80010da:	0023      	movs	r3, r4
 80010dc:	433b      	orrs	r3, r7
 80010de:	d100      	bne.n	80010e2 <__aeabi_dsub+0x1fe>
 80010e0:	e1b9      	b.n	8001456 <__aeabi_dsub+0x572>
 80010e2:	2280      	movs	r2, #128	; 0x80
 80010e4:	0312      	lsls	r2, r2, #12
 80010e6:	4314      	orrs	r4, r2
 80010e8:	0324      	lsls	r4, r4, #12
 80010ea:	0b24      	lsrs	r4, r4, #12
 80010ec:	e79f      	b.n	800102e <__aeabi_dsub+0x14a>
 80010ee:	002e      	movs	r6, r5
 80010f0:	e77e      	b.n	8000ff0 <__aeabi_dsub+0x10c>
 80010f2:	0008      	movs	r0, r1
 80010f4:	4310      	orrs	r0, r2
 80010f6:	d100      	bne.n	80010fa <__aeabi_dsub+0x216>
 80010f8:	e0ca      	b.n	8001290 <__aeabi_dsub+0x3ac>
 80010fa:	1e58      	subs	r0, r3, #1
 80010fc:	4684      	mov	ip, r0
 80010fe:	2800      	cmp	r0, #0
 8001100:	d000      	beq.n	8001104 <__aeabi_dsub+0x220>
 8001102:	e0e7      	b.n	80012d4 <__aeabi_dsub+0x3f0>
 8001104:	4452      	add	r2, sl
 8001106:	4552      	cmp	r2, sl
 8001108:	4180      	sbcs	r0, r0
 800110a:	1864      	adds	r4, r4, r1
 800110c:	4240      	negs	r0, r0
 800110e:	1824      	adds	r4, r4, r0
 8001110:	0017      	movs	r7, r2
 8001112:	2601      	movs	r6, #1
 8001114:	0223      	lsls	r3, r4, #8
 8001116:	d507      	bpl.n	8001128 <__aeabi_dsub+0x244>
 8001118:	2602      	movs	r6, #2
 800111a:	e7cf      	b.n	80010bc <__aeabi_dsub+0x1d8>
 800111c:	4664      	mov	r4, ip
 800111e:	432c      	orrs	r4, r5
 8001120:	d100      	bne.n	8001124 <__aeabi_dsub+0x240>
 8001122:	e1b3      	b.n	800148c <__aeabi_dsub+0x5a8>
 8001124:	002c      	movs	r4, r5
 8001126:	4667      	mov	r7, ip
 8001128:	077b      	lsls	r3, r7, #29
 800112a:	d000      	beq.n	800112e <__aeabi_dsub+0x24a>
 800112c:	e762      	b.n	8000ff4 <__aeabi_dsub+0x110>
 800112e:	0763      	lsls	r3, r4, #29
 8001130:	08ff      	lsrs	r7, r7, #3
 8001132:	431f      	orrs	r7, r3
 8001134:	2501      	movs	r5, #1
 8001136:	4643      	mov	r3, r8
 8001138:	08e4      	lsrs	r4, r4, #3
 800113a:	401d      	ands	r5, r3
 800113c:	e793      	b.n	8001066 <__aeabi_dsub+0x182>
 800113e:	2d00      	cmp	r5, #0
 8001140:	d178      	bne.n	8001234 <__aeabi_dsub+0x350>
 8001142:	1c75      	adds	r5, r6, #1
 8001144:	056d      	lsls	r5, r5, #21
 8001146:	0d6d      	lsrs	r5, r5, #21
 8001148:	2d01      	cmp	r5, #1
 800114a:	dc00      	bgt.n	800114e <__aeabi_dsub+0x26a>
 800114c:	e0f2      	b.n	8001334 <__aeabi_dsub+0x450>
 800114e:	4650      	mov	r0, sl
 8001150:	1a80      	subs	r0, r0, r2
 8001152:	4582      	cmp	sl, r0
 8001154:	41bf      	sbcs	r7, r7
 8001156:	1a65      	subs	r5, r4, r1
 8001158:	427f      	negs	r7, r7
 800115a:	1bed      	subs	r5, r5, r7
 800115c:	4684      	mov	ip, r0
 800115e:	0228      	lsls	r0, r5, #8
 8001160:	d400      	bmi.n	8001164 <__aeabi_dsub+0x280>
 8001162:	e08c      	b.n	800127e <__aeabi_dsub+0x39a>
 8001164:	4650      	mov	r0, sl
 8001166:	1a17      	subs	r7, r2, r0
 8001168:	42ba      	cmp	r2, r7
 800116a:	4192      	sbcs	r2, r2
 800116c:	1b0c      	subs	r4, r1, r4
 800116e:	4255      	negs	r5, r2
 8001170:	1b65      	subs	r5, r4, r5
 8001172:	4698      	mov	r8, r3
 8001174:	e714      	b.n	8000fa0 <__aeabi_dsub+0xbc>
 8001176:	2501      	movs	r5, #1
 8001178:	4643      	mov	r3, r8
 800117a:	2400      	movs	r4, #0
 800117c:	401d      	ands	r5, r3
 800117e:	2700      	movs	r7, #0
 8001180:	e755      	b.n	800102e <__aeabi_dsub+0x14a>
 8001182:	4c2a      	ldr	r4, [pc, #168]	; (800122c <__aeabi_dsub+0x348>)
 8001184:	1af6      	subs	r6, r6, r3
 8001186:	402c      	ands	r4, r5
 8001188:	e732      	b.n	8000ff0 <__aeabi_dsub+0x10c>
 800118a:	003d      	movs	r5, r7
 800118c:	3828      	subs	r0, #40	; 0x28
 800118e:	4085      	lsls	r5, r0
 8001190:	2700      	movs	r7, #0
 8001192:	e717      	b.n	8000fc4 <__aeabi_dsub+0xe0>
 8001194:	0038      	movs	r0, r7
 8001196:	f000 fa6f 	bl	8001678 <__clzsi2>
 800119a:	3020      	adds	r0, #32
 800119c:	e706      	b.n	8000fac <__aeabi_dsub+0xc8>
 800119e:	430a      	orrs	r2, r1
 80011a0:	0017      	movs	r7, r2
 80011a2:	2100      	movs	r1, #0
 80011a4:	1e7a      	subs	r2, r7, #1
 80011a6:	4197      	sbcs	r7, r2
 80011a8:	e6ee      	b.n	8000f88 <__aeabi_dsub+0xa4>
 80011aa:	2b00      	cmp	r3, #0
 80011ac:	d000      	beq.n	80011b0 <__aeabi_dsub+0x2cc>
 80011ae:	e0e5      	b.n	800137c <__aeabi_dsub+0x498>
 80011b0:	1c73      	adds	r3, r6, #1
 80011b2:	469c      	mov	ip, r3
 80011b4:	055b      	lsls	r3, r3, #21
 80011b6:	0d5b      	lsrs	r3, r3, #21
 80011b8:	2b01      	cmp	r3, #1
 80011ba:	dc00      	bgt.n	80011be <__aeabi_dsub+0x2da>
 80011bc:	e09f      	b.n	80012fe <__aeabi_dsub+0x41a>
 80011be:	4b1a      	ldr	r3, [pc, #104]	; (8001228 <__aeabi_dsub+0x344>)
 80011c0:	459c      	cmp	ip, r3
 80011c2:	d100      	bne.n	80011c6 <__aeabi_dsub+0x2e2>
 80011c4:	e0c5      	b.n	8001352 <__aeabi_dsub+0x46e>
 80011c6:	4452      	add	r2, sl
 80011c8:	4552      	cmp	r2, sl
 80011ca:	4180      	sbcs	r0, r0
 80011cc:	1864      	adds	r4, r4, r1
 80011ce:	4240      	negs	r0, r0
 80011d0:	1824      	adds	r4, r4, r0
 80011d2:	07e7      	lsls	r7, r4, #31
 80011d4:	0852      	lsrs	r2, r2, #1
 80011d6:	4317      	orrs	r7, r2
 80011d8:	0864      	lsrs	r4, r4, #1
 80011da:	4666      	mov	r6, ip
 80011dc:	e708      	b.n	8000ff0 <__aeabi_dsub+0x10c>
 80011de:	4812      	ldr	r0, [pc, #72]	; (8001228 <__aeabi_dsub+0x344>)
 80011e0:	4285      	cmp	r5, r0
 80011e2:	d100      	bne.n	80011e6 <__aeabi_dsub+0x302>
 80011e4:	e085      	b.n	80012f2 <__aeabi_dsub+0x40e>
 80011e6:	001d      	movs	r5, r3
 80011e8:	e6bc      	b.n	8000f64 <__aeabi_dsub+0x80>
 80011ea:	0029      	movs	r1, r5
 80011ec:	3e1f      	subs	r6, #31
 80011ee:	40f1      	lsrs	r1, r6
 80011f0:	2b20      	cmp	r3, #32
 80011f2:	d100      	bne.n	80011f6 <__aeabi_dsub+0x312>
 80011f4:	e07f      	b.n	80012f6 <__aeabi_dsub+0x412>
 80011f6:	2240      	movs	r2, #64	; 0x40
 80011f8:	1ad3      	subs	r3, r2, r3
 80011fa:	409d      	lsls	r5, r3
 80011fc:	432f      	orrs	r7, r5
 80011fe:	1e7d      	subs	r5, r7, #1
 8001200:	41af      	sbcs	r7, r5
 8001202:	2400      	movs	r4, #0
 8001204:	430f      	orrs	r7, r1
 8001206:	2600      	movs	r6, #0
 8001208:	e78e      	b.n	8001128 <__aeabi_dsub+0x244>
 800120a:	002b      	movs	r3, r5
 800120c:	000f      	movs	r7, r1
 800120e:	3b20      	subs	r3, #32
 8001210:	40df      	lsrs	r7, r3
 8001212:	2d20      	cmp	r5, #32
 8001214:	d071      	beq.n	80012fa <__aeabi_dsub+0x416>
 8001216:	2340      	movs	r3, #64	; 0x40
 8001218:	1b5d      	subs	r5, r3, r5
 800121a:	40a9      	lsls	r1, r5
 800121c:	430a      	orrs	r2, r1
 800121e:	1e51      	subs	r1, r2, #1
 8001220:	418a      	sbcs	r2, r1
 8001222:	2100      	movs	r1, #0
 8001224:	4317      	orrs	r7, r2
 8001226:	e6af      	b.n	8000f88 <__aeabi_dsub+0xa4>
 8001228:	000007ff 	.word	0x000007ff
 800122c:	ff7fffff 	.word	0xff7fffff
 8001230:	800fffff 	.word	0x800fffff
 8001234:	2e00      	cmp	r6, #0
 8001236:	d03e      	beq.n	80012b6 <__aeabi_dsub+0x3d2>
 8001238:	4eb3      	ldr	r6, [pc, #716]	; (8001508 <__aeabi_dsub+0x624>)
 800123a:	45b4      	cmp	ip, r6
 800123c:	d045      	beq.n	80012ca <__aeabi_dsub+0x3e6>
 800123e:	2680      	movs	r6, #128	; 0x80
 8001240:	0436      	lsls	r6, r6, #16
 8001242:	426d      	negs	r5, r5
 8001244:	4334      	orrs	r4, r6
 8001246:	2d38      	cmp	r5, #56	; 0x38
 8001248:	dd00      	ble.n	800124c <__aeabi_dsub+0x368>
 800124a:	e0a8      	b.n	800139e <__aeabi_dsub+0x4ba>
 800124c:	2d1f      	cmp	r5, #31
 800124e:	dd00      	ble.n	8001252 <__aeabi_dsub+0x36e>
 8001250:	e11f      	b.n	8001492 <__aeabi_dsub+0x5ae>
 8001252:	2620      	movs	r6, #32
 8001254:	0027      	movs	r7, r4
 8001256:	4650      	mov	r0, sl
 8001258:	1b76      	subs	r6, r6, r5
 800125a:	40b7      	lsls	r7, r6
 800125c:	40e8      	lsrs	r0, r5
 800125e:	4307      	orrs	r7, r0
 8001260:	4650      	mov	r0, sl
 8001262:	40b0      	lsls	r0, r6
 8001264:	1e46      	subs	r6, r0, #1
 8001266:	41b0      	sbcs	r0, r6
 8001268:	40ec      	lsrs	r4, r5
 800126a:	4338      	orrs	r0, r7
 800126c:	1a17      	subs	r7, r2, r0
 800126e:	42ba      	cmp	r2, r7
 8001270:	4192      	sbcs	r2, r2
 8001272:	1b0c      	subs	r4, r1, r4
 8001274:	4252      	negs	r2, r2
 8001276:	1aa4      	subs	r4, r4, r2
 8001278:	4666      	mov	r6, ip
 800127a:	4698      	mov	r8, r3
 800127c:	e68b      	b.n	8000f96 <__aeabi_dsub+0xb2>
 800127e:	4664      	mov	r4, ip
 8001280:	4667      	mov	r7, ip
 8001282:	432c      	orrs	r4, r5
 8001284:	d000      	beq.n	8001288 <__aeabi_dsub+0x3a4>
 8001286:	e68b      	b.n	8000fa0 <__aeabi_dsub+0xbc>
 8001288:	2500      	movs	r5, #0
 800128a:	2600      	movs	r6, #0
 800128c:	2700      	movs	r7, #0
 800128e:	e6ea      	b.n	8001066 <__aeabi_dsub+0x182>
 8001290:	001e      	movs	r6, r3
 8001292:	e6ad      	b.n	8000ff0 <__aeabi_dsub+0x10c>
 8001294:	2b1f      	cmp	r3, #31
 8001296:	dc60      	bgt.n	800135a <__aeabi_dsub+0x476>
 8001298:	2720      	movs	r7, #32
 800129a:	1af8      	subs	r0, r7, r3
 800129c:	000f      	movs	r7, r1
 800129e:	4684      	mov	ip, r0
 80012a0:	4087      	lsls	r7, r0
 80012a2:	0010      	movs	r0, r2
 80012a4:	40d8      	lsrs	r0, r3
 80012a6:	4307      	orrs	r7, r0
 80012a8:	4660      	mov	r0, ip
 80012aa:	4082      	lsls	r2, r0
 80012ac:	1e50      	subs	r0, r2, #1
 80012ae:	4182      	sbcs	r2, r0
 80012b0:	40d9      	lsrs	r1, r3
 80012b2:	4317      	orrs	r7, r2
 80012b4:	e6f5      	b.n	80010a2 <__aeabi_dsub+0x1be>
 80012b6:	0026      	movs	r6, r4
 80012b8:	4650      	mov	r0, sl
 80012ba:	4306      	orrs	r6, r0
 80012bc:	d005      	beq.n	80012ca <__aeabi_dsub+0x3e6>
 80012be:	43ed      	mvns	r5, r5
 80012c0:	2d00      	cmp	r5, #0
 80012c2:	d0d3      	beq.n	800126c <__aeabi_dsub+0x388>
 80012c4:	4e90      	ldr	r6, [pc, #576]	; (8001508 <__aeabi_dsub+0x624>)
 80012c6:	45b4      	cmp	ip, r6
 80012c8:	d1bd      	bne.n	8001246 <__aeabi_dsub+0x362>
 80012ca:	000c      	movs	r4, r1
 80012cc:	0017      	movs	r7, r2
 80012ce:	4666      	mov	r6, ip
 80012d0:	4698      	mov	r8, r3
 80012d2:	e68d      	b.n	8000ff0 <__aeabi_dsub+0x10c>
 80012d4:	488c      	ldr	r0, [pc, #560]	; (8001508 <__aeabi_dsub+0x624>)
 80012d6:	4283      	cmp	r3, r0
 80012d8:	d00b      	beq.n	80012f2 <__aeabi_dsub+0x40e>
 80012da:	4663      	mov	r3, ip
 80012dc:	e6d9      	b.n	8001092 <__aeabi_dsub+0x1ae>
 80012de:	2d00      	cmp	r5, #0
 80012e0:	d000      	beq.n	80012e4 <__aeabi_dsub+0x400>
 80012e2:	e096      	b.n	8001412 <__aeabi_dsub+0x52e>
 80012e4:	0008      	movs	r0, r1
 80012e6:	4310      	orrs	r0, r2
 80012e8:	d100      	bne.n	80012ec <__aeabi_dsub+0x408>
 80012ea:	e0e2      	b.n	80014b2 <__aeabi_dsub+0x5ce>
 80012ec:	000c      	movs	r4, r1
 80012ee:	0017      	movs	r7, r2
 80012f0:	4698      	mov	r8, r3
 80012f2:	4e85      	ldr	r6, [pc, #532]	; (8001508 <__aeabi_dsub+0x624>)
 80012f4:	e67c      	b.n	8000ff0 <__aeabi_dsub+0x10c>
 80012f6:	2500      	movs	r5, #0
 80012f8:	e780      	b.n	80011fc <__aeabi_dsub+0x318>
 80012fa:	2100      	movs	r1, #0
 80012fc:	e78e      	b.n	800121c <__aeabi_dsub+0x338>
 80012fe:	0023      	movs	r3, r4
 8001300:	4650      	mov	r0, sl
 8001302:	4303      	orrs	r3, r0
 8001304:	2e00      	cmp	r6, #0
 8001306:	d000      	beq.n	800130a <__aeabi_dsub+0x426>
 8001308:	e0a8      	b.n	800145c <__aeabi_dsub+0x578>
 800130a:	2b00      	cmp	r3, #0
 800130c:	d100      	bne.n	8001310 <__aeabi_dsub+0x42c>
 800130e:	e0de      	b.n	80014ce <__aeabi_dsub+0x5ea>
 8001310:	000b      	movs	r3, r1
 8001312:	4313      	orrs	r3, r2
 8001314:	d100      	bne.n	8001318 <__aeabi_dsub+0x434>
 8001316:	e66b      	b.n	8000ff0 <__aeabi_dsub+0x10c>
 8001318:	4452      	add	r2, sl
 800131a:	4552      	cmp	r2, sl
 800131c:	4180      	sbcs	r0, r0
 800131e:	1864      	adds	r4, r4, r1
 8001320:	4240      	negs	r0, r0
 8001322:	1824      	adds	r4, r4, r0
 8001324:	0017      	movs	r7, r2
 8001326:	0223      	lsls	r3, r4, #8
 8001328:	d400      	bmi.n	800132c <__aeabi_dsub+0x448>
 800132a:	e6fd      	b.n	8001128 <__aeabi_dsub+0x244>
 800132c:	4b77      	ldr	r3, [pc, #476]	; (800150c <__aeabi_dsub+0x628>)
 800132e:	4666      	mov	r6, ip
 8001330:	401c      	ands	r4, r3
 8001332:	e65d      	b.n	8000ff0 <__aeabi_dsub+0x10c>
 8001334:	0025      	movs	r5, r4
 8001336:	4650      	mov	r0, sl
 8001338:	4305      	orrs	r5, r0
 800133a:	2e00      	cmp	r6, #0
 800133c:	d1cf      	bne.n	80012de <__aeabi_dsub+0x3fa>
 800133e:	2d00      	cmp	r5, #0
 8001340:	d14f      	bne.n	80013e2 <__aeabi_dsub+0x4fe>
 8001342:	000c      	movs	r4, r1
 8001344:	4314      	orrs	r4, r2
 8001346:	d100      	bne.n	800134a <__aeabi_dsub+0x466>
 8001348:	e0a0      	b.n	800148c <__aeabi_dsub+0x5a8>
 800134a:	000c      	movs	r4, r1
 800134c:	0017      	movs	r7, r2
 800134e:	4698      	mov	r8, r3
 8001350:	e64e      	b.n	8000ff0 <__aeabi_dsub+0x10c>
 8001352:	4666      	mov	r6, ip
 8001354:	2400      	movs	r4, #0
 8001356:	2700      	movs	r7, #0
 8001358:	e685      	b.n	8001066 <__aeabi_dsub+0x182>
 800135a:	001f      	movs	r7, r3
 800135c:	0008      	movs	r0, r1
 800135e:	3f20      	subs	r7, #32
 8001360:	40f8      	lsrs	r0, r7
 8001362:	0007      	movs	r7, r0
 8001364:	2b20      	cmp	r3, #32
 8001366:	d100      	bne.n	800136a <__aeabi_dsub+0x486>
 8001368:	e08e      	b.n	8001488 <__aeabi_dsub+0x5a4>
 800136a:	2040      	movs	r0, #64	; 0x40
 800136c:	1ac3      	subs	r3, r0, r3
 800136e:	4099      	lsls	r1, r3
 8001370:	430a      	orrs	r2, r1
 8001372:	1e51      	subs	r1, r2, #1
 8001374:	418a      	sbcs	r2, r1
 8001376:	2100      	movs	r1, #0
 8001378:	4317      	orrs	r7, r2
 800137a:	e692      	b.n	80010a2 <__aeabi_dsub+0x1be>
 800137c:	2e00      	cmp	r6, #0
 800137e:	d114      	bne.n	80013aa <__aeabi_dsub+0x4c6>
 8001380:	0026      	movs	r6, r4
 8001382:	4650      	mov	r0, sl
 8001384:	4306      	orrs	r6, r0
 8001386:	d062      	beq.n	800144e <__aeabi_dsub+0x56a>
 8001388:	43db      	mvns	r3, r3
 800138a:	2b00      	cmp	r3, #0
 800138c:	d15c      	bne.n	8001448 <__aeabi_dsub+0x564>
 800138e:	1887      	adds	r7, r0, r2
 8001390:	4297      	cmp	r7, r2
 8001392:	4192      	sbcs	r2, r2
 8001394:	1864      	adds	r4, r4, r1
 8001396:	4252      	negs	r2, r2
 8001398:	18a4      	adds	r4, r4, r2
 800139a:	4666      	mov	r6, ip
 800139c:	e687      	b.n	80010ae <__aeabi_dsub+0x1ca>
 800139e:	4650      	mov	r0, sl
 80013a0:	4320      	orrs	r0, r4
 80013a2:	1e44      	subs	r4, r0, #1
 80013a4:	41a0      	sbcs	r0, r4
 80013a6:	2400      	movs	r4, #0
 80013a8:	e760      	b.n	800126c <__aeabi_dsub+0x388>
 80013aa:	4e57      	ldr	r6, [pc, #348]	; (8001508 <__aeabi_dsub+0x624>)
 80013ac:	45b4      	cmp	ip, r6
 80013ae:	d04e      	beq.n	800144e <__aeabi_dsub+0x56a>
 80013b0:	2680      	movs	r6, #128	; 0x80
 80013b2:	0436      	lsls	r6, r6, #16
 80013b4:	425b      	negs	r3, r3
 80013b6:	4334      	orrs	r4, r6
 80013b8:	2b38      	cmp	r3, #56	; 0x38
 80013ba:	dd00      	ble.n	80013be <__aeabi_dsub+0x4da>
 80013bc:	e07f      	b.n	80014be <__aeabi_dsub+0x5da>
 80013be:	2b1f      	cmp	r3, #31
 80013c0:	dd00      	ble.n	80013c4 <__aeabi_dsub+0x4e0>
 80013c2:	e08b      	b.n	80014dc <__aeabi_dsub+0x5f8>
 80013c4:	2620      	movs	r6, #32
 80013c6:	0027      	movs	r7, r4
 80013c8:	4650      	mov	r0, sl
 80013ca:	1af6      	subs	r6, r6, r3
 80013cc:	40b7      	lsls	r7, r6
 80013ce:	40d8      	lsrs	r0, r3
 80013d0:	4307      	orrs	r7, r0
 80013d2:	4650      	mov	r0, sl
 80013d4:	40b0      	lsls	r0, r6
 80013d6:	1e46      	subs	r6, r0, #1
 80013d8:	41b0      	sbcs	r0, r6
 80013da:	4307      	orrs	r7, r0
 80013dc:	40dc      	lsrs	r4, r3
 80013de:	18bf      	adds	r7, r7, r2
 80013e0:	e7d6      	b.n	8001390 <__aeabi_dsub+0x4ac>
 80013e2:	000d      	movs	r5, r1
 80013e4:	4315      	orrs	r5, r2
 80013e6:	d100      	bne.n	80013ea <__aeabi_dsub+0x506>
 80013e8:	e602      	b.n	8000ff0 <__aeabi_dsub+0x10c>
 80013ea:	4650      	mov	r0, sl
 80013ec:	1a80      	subs	r0, r0, r2
 80013ee:	4582      	cmp	sl, r0
 80013f0:	41bf      	sbcs	r7, r7
 80013f2:	1a65      	subs	r5, r4, r1
 80013f4:	427f      	negs	r7, r7
 80013f6:	1bed      	subs	r5, r5, r7
 80013f8:	4684      	mov	ip, r0
 80013fa:	0228      	lsls	r0, r5, #8
 80013fc:	d400      	bmi.n	8001400 <__aeabi_dsub+0x51c>
 80013fe:	e68d      	b.n	800111c <__aeabi_dsub+0x238>
 8001400:	4650      	mov	r0, sl
 8001402:	1a17      	subs	r7, r2, r0
 8001404:	42ba      	cmp	r2, r7
 8001406:	4192      	sbcs	r2, r2
 8001408:	1b0c      	subs	r4, r1, r4
 800140a:	4252      	negs	r2, r2
 800140c:	1aa4      	subs	r4, r4, r2
 800140e:	4698      	mov	r8, r3
 8001410:	e5ee      	b.n	8000ff0 <__aeabi_dsub+0x10c>
 8001412:	000d      	movs	r5, r1
 8001414:	4315      	orrs	r5, r2
 8001416:	d100      	bne.n	800141a <__aeabi_dsub+0x536>
 8001418:	e76b      	b.n	80012f2 <__aeabi_dsub+0x40e>
 800141a:	4650      	mov	r0, sl
 800141c:	0767      	lsls	r7, r4, #29
 800141e:	08c0      	lsrs	r0, r0, #3
 8001420:	4307      	orrs	r7, r0
 8001422:	2080      	movs	r0, #128	; 0x80
 8001424:	08e4      	lsrs	r4, r4, #3
 8001426:	0300      	lsls	r0, r0, #12
 8001428:	4204      	tst	r4, r0
 800142a:	d007      	beq.n	800143c <__aeabi_dsub+0x558>
 800142c:	08cd      	lsrs	r5, r1, #3
 800142e:	4205      	tst	r5, r0
 8001430:	d104      	bne.n	800143c <__aeabi_dsub+0x558>
 8001432:	002c      	movs	r4, r5
 8001434:	4698      	mov	r8, r3
 8001436:	08d7      	lsrs	r7, r2, #3
 8001438:	0749      	lsls	r1, r1, #29
 800143a:	430f      	orrs	r7, r1
 800143c:	0f7b      	lsrs	r3, r7, #29
 800143e:	00e4      	lsls	r4, r4, #3
 8001440:	431c      	orrs	r4, r3
 8001442:	00ff      	lsls	r7, r7, #3
 8001444:	4e30      	ldr	r6, [pc, #192]	; (8001508 <__aeabi_dsub+0x624>)
 8001446:	e5d3      	b.n	8000ff0 <__aeabi_dsub+0x10c>
 8001448:	4e2f      	ldr	r6, [pc, #188]	; (8001508 <__aeabi_dsub+0x624>)
 800144a:	45b4      	cmp	ip, r6
 800144c:	d1b4      	bne.n	80013b8 <__aeabi_dsub+0x4d4>
 800144e:	000c      	movs	r4, r1
 8001450:	0017      	movs	r7, r2
 8001452:	4666      	mov	r6, ip
 8001454:	e5cc      	b.n	8000ff0 <__aeabi_dsub+0x10c>
 8001456:	2700      	movs	r7, #0
 8001458:	2400      	movs	r4, #0
 800145a:	e5e8      	b.n	800102e <__aeabi_dsub+0x14a>
 800145c:	2b00      	cmp	r3, #0
 800145e:	d039      	beq.n	80014d4 <__aeabi_dsub+0x5f0>
 8001460:	000b      	movs	r3, r1
 8001462:	4313      	orrs	r3, r2
 8001464:	d100      	bne.n	8001468 <__aeabi_dsub+0x584>
 8001466:	e744      	b.n	80012f2 <__aeabi_dsub+0x40e>
 8001468:	08c0      	lsrs	r0, r0, #3
 800146a:	0767      	lsls	r7, r4, #29
 800146c:	4307      	orrs	r7, r0
 800146e:	2080      	movs	r0, #128	; 0x80
 8001470:	08e4      	lsrs	r4, r4, #3
 8001472:	0300      	lsls	r0, r0, #12
 8001474:	4204      	tst	r4, r0
 8001476:	d0e1      	beq.n	800143c <__aeabi_dsub+0x558>
 8001478:	08cb      	lsrs	r3, r1, #3
 800147a:	4203      	tst	r3, r0
 800147c:	d1de      	bne.n	800143c <__aeabi_dsub+0x558>
 800147e:	08d7      	lsrs	r7, r2, #3
 8001480:	0749      	lsls	r1, r1, #29
 8001482:	430f      	orrs	r7, r1
 8001484:	001c      	movs	r4, r3
 8001486:	e7d9      	b.n	800143c <__aeabi_dsub+0x558>
 8001488:	2100      	movs	r1, #0
 800148a:	e771      	b.n	8001370 <__aeabi_dsub+0x48c>
 800148c:	2500      	movs	r5, #0
 800148e:	2700      	movs	r7, #0
 8001490:	e5e9      	b.n	8001066 <__aeabi_dsub+0x182>
 8001492:	002e      	movs	r6, r5
 8001494:	0027      	movs	r7, r4
 8001496:	3e20      	subs	r6, #32
 8001498:	40f7      	lsrs	r7, r6
 800149a:	2d20      	cmp	r5, #32
 800149c:	d02f      	beq.n	80014fe <__aeabi_dsub+0x61a>
 800149e:	2640      	movs	r6, #64	; 0x40
 80014a0:	1b75      	subs	r5, r6, r5
 80014a2:	40ac      	lsls	r4, r5
 80014a4:	4650      	mov	r0, sl
 80014a6:	4320      	orrs	r0, r4
 80014a8:	1e44      	subs	r4, r0, #1
 80014aa:	41a0      	sbcs	r0, r4
 80014ac:	2400      	movs	r4, #0
 80014ae:	4338      	orrs	r0, r7
 80014b0:	e6dc      	b.n	800126c <__aeabi_dsub+0x388>
 80014b2:	2480      	movs	r4, #128	; 0x80
 80014b4:	2500      	movs	r5, #0
 80014b6:	0324      	lsls	r4, r4, #12
 80014b8:	4e13      	ldr	r6, [pc, #76]	; (8001508 <__aeabi_dsub+0x624>)
 80014ba:	2700      	movs	r7, #0
 80014bc:	e5d3      	b.n	8001066 <__aeabi_dsub+0x182>
 80014be:	4650      	mov	r0, sl
 80014c0:	4320      	orrs	r0, r4
 80014c2:	0007      	movs	r7, r0
 80014c4:	1e78      	subs	r0, r7, #1
 80014c6:	4187      	sbcs	r7, r0
 80014c8:	2400      	movs	r4, #0
 80014ca:	18bf      	adds	r7, r7, r2
 80014cc:	e760      	b.n	8001390 <__aeabi_dsub+0x4ac>
 80014ce:	000c      	movs	r4, r1
 80014d0:	0017      	movs	r7, r2
 80014d2:	e58d      	b.n	8000ff0 <__aeabi_dsub+0x10c>
 80014d4:	000c      	movs	r4, r1
 80014d6:	0017      	movs	r7, r2
 80014d8:	4e0b      	ldr	r6, [pc, #44]	; (8001508 <__aeabi_dsub+0x624>)
 80014da:	e589      	b.n	8000ff0 <__aeabi_dsub+0x10c>
 80014dc:	001e      	movs	r6, r3
 80014de:	0027      	movs	r7, r4
 80014e0:	3e20      	subs	r6, #32
 80014e2:	40f7      	lsrs	r7, r6
 80014e4:	2b20      	cmp	r3, #32
 80014e6:	d00c      	beq.n	8001502 <__aeabi_dsub+0x61e>
 80014e8:	2640      	movs	r6, #64	; 0x40
 80014ea:	1af3      	subs	r3, r6, r3
 80014ec:	409c      	lsls	r4, r3
 80014ee:	4650      	mov	r0, sl
 80014f0:	4320      	orrs	r0, r4
 80014f2:	1e44      	subs	r4, r0, #1
 80014f4:	41a0      	sbcs	r0, r4
 80014f6:	4307      	orrs	r7, r0
 80014f8:	2400      	movs	r4, #0
 80014fa:	18bf      	adds	r7, r7, r2
 80014fc:	e748      	b.n	8001390 <__aeabi_dsub+0x4ac>
 80014fe:	2400      	movs	r4, #0
 8001500:	e7d0      	b.n	80014a4 <__aeabi_dsub+0x5c0>
 8001502:	2400      	movs	r4, #0
 8001504:	e7f3      	b.n	80014ee <__aeabi_dsub+0x60a>
 8001506:	46c0      	nop			; (mov r8, r8)
 8001508:	000007ff 	.word	0x000007ff
 800150c:	ff7fffff 	.word	0xff7fffff

08001510 <__aeabi_d2iz>:
 8001510:	b530      	push	{r4, r5, lr}
 8001512:	4d13      	ldr	r5, [pc, #76]	; (8001560 <__aeabi_d2iz+0x50>)
 8001514:	030a      	lsls	r2, r1, #12
 8001516:	004b      	lsls	r3, r1, #1
 8001518:	0b12      	lsrs	r2, r2, #12
 800151a:	0d5b      	lsrs	r3, r3, #21
 800151c:	0fc9      	lsrs	r1, r1, #31
 800151e:	2400      	movs	r4, #0
 8001520:	42ab      	cmp	r3, r5
 8001522:	dd10      	ble.n	8001546 <__aeabi_d2iz+0x36>
 8001524:	4c0f      	ldr	r4, [pc, #60]	; (8001564 <__aeabi_d2iz+0x54>)
 8001526:	42a3      	cmp	r3, r4
 8001528:	dc0f      	bgt.n	800154a <__aeabi_d2iz+0x3a>
 800152a:	2480      	movs	r4, #128	; 0x80
 800152c:	4d0e      	ldr	r5, [pc, #56]	; (8001568 <__aeabi_d2iz+0x58>)
 800152e:	0364      	lsls	r4, r4, #13
 8001530:	4322      	orrs	r2, r4
 8001532:	1aed      	subs	r5, r5, r3
 8001534:	2d1f      	cmp	r5, #31
 8001536:	dd0b      	ble.n	8001550 <__aeabi_d2iz+0x40>
 8001538:	480c      	ldr	r0, [pc, #48]	; (800156c <__aeabi_d2iz+0x5c>)
 800153a:	1ac3      	subs	r3, r0, r3
 800153c:	40da      	lsrs	r2, r3
 800153e:	4254      	negs	r4, r2
 8001540:	2900      	cmp	r1, #0
 8001542:	d100      	bne.n	8001546 <__aeabi_d2iz+0x36>
 8001544:	0014      	movs	r4, r2
 8001546:	0020      	movs	r0, r4
 8001548:	bd30      	pop	{r4, r5, pc}
 800154a:	4b09      	ldr	r3, [pc, #36]	; (8001570 <__aeabi_d2iz+0x60>)
 800154c:	18cc      	adds	r4, r1, r3
 800154e:	e7fa      	b.n	8001546 <__aeabi_d2iz+0x36>
 8001550:	4c08      	ldr	r4, [pc, #32]	; (8001574 <__aeabi_d2iz+0x64>)
 8001552:	40e8      	lsrs	r0, r5
 8001554:	46a4      	mov	ip, r4
 8001556:	4463      	add	r3, ip
 8001558:	409a      	lsls	r2, r3
 800155a:	4302      	orrs	r2, r0
 800155c:	e7ef      	b.n	800153e <__aeabi_d2iz+0x2e>
 800155e:	46c0      	nop			; (mov r8, r8)
 8001560:	000003fe 	.word	0x000003fe
 8001564:	0000041d 	.word	0x0000041d
 8001568:	00000433 	.word	0x00000433
 800156c:	00000413 	.word	0x00000413
 8001570:	7fffffff 	.word	0x7fffffff
 8001574:	fffffbed 	.word	0xfffffbed

08001578 <__aeabi_i2d>:
 8001578:	b570      	push	{r4, r5, r6, lr}
 800157a:	2800      	cmp	r0, #0
 800157c:	d030      	beq.n	80015e0 <__aeabi_i2d+0x68>
 800157e:	17c3      	asrs	r3, r0, #31
 8001580:	18c4      	adds	r4, r0, r3
 8001582:	405c      	eors	r4, r3
 8001584:	0fc5      	lsrs	r5, r0, #31
 8001586:	0020      	movs	r0, r4
 8001588:	f000 f876 	bl	8001678 <__clzsi2>
 800158c:	4b17      	ldr	r3, [pc, #92]	; (80015ec <__aeabi_i2d+0x74>)
 800158e:	4a18      	ldr	r2, [pc, #96]	; (80015f0 <__aeabi_i2d+0x78>)
 8001590:	1a1b      	subs	r3, r3, r0
 8001592:	1ad2      	subs	r2, r2, r3
 8001594:	2a1f      	cmp	r2, #31
 8001596:	dd18      	ble.n	80015ca <__aeabi_i2d+0x52>
 8001598:	4a16      	ldr	r2, [pc, #88]	; (80015f4 <__aeabi_i2d+0x7c>)
 800159a:	1ad2      	subs	r2, r2, r3
 800159c:	4094      	lsls	r4, r2
 800159e:	2200      	movs	r2, #0
 80015a0:	0324      	lsls	r4, r4, #12
 80015a2:	055b      	lsls	r3, r3, #21
 80015a4:	0b24      	lsrs	r4, r4, #12
 80015a6:	0d5b      	lsrs	r3, r3, #21
 80015a8:	2100      	movs	r1, #0
 80015aa:	0010      	movs	r0, r2
 80015ac:	0324      	lsls	r4, r4, #12
 80015ae:	0d0a      	lsrs	r2, r1, #20
 80015b0:	0b24      	lsrs	r4, r4, #12
 80015b2:	0512      	lsls	r2, r2, #20
 80015b4:	4322      	orrs	r2, r4
 80015b6:	4c10      	ldr	r4, [pc, #64]	; (80015f8 <__aeabi_i2d+0x80>)
 80015b8:	051b      	lsls	r3, r3, #20
 80015ba:	4022      	ands	r2, r4
 80015bc:	4313      	orrs	r3, r2
 80015be:	005b      	lsls	r3, r3, #1
 80015c0:	07ed      	lsls	r5, r5, #31
 80015c2:	085b      	lsrs	r3, r3, #1
 80015c4:	432b      	orrs	r3, r5
 80015c6:	0019      	movs	r1, r3
 80015c8:	bd70      	pop	{r4, r5, r6, pc}
 80015ca:	0021      	movs	r1, r4
 80015cc:	4091      	lsls	r1, r2
 80015ce:	000a      	movs	r2, r1
 80015d0:	210b      	movs	r1, #11
 80015d2:	1a08      	subs	r0, r1, r0
 80015d4:	40c4      	lsrs	r4, r0
 80015d6:	055b      	lsls	r3, r3, #21
 80015d8:	0324      	lsls	r4, r4, #12
 80015da:	0b24      	lsrs	r4, r4, #12
 80015dc:	0d5b      	lsrs	r3, r3, #21
 80015de:	e7e3      	b.n	80015a8 <__aeabi_i2d+0x30>
 80015e0:	2500      	movs	r5, #0
 80015e2:	2300      	movs	r3, #0
 80015e4:	2400      	movs	r4, #0
 80015e6:	2200      	movs	r2, #0
 80015e8:	e7de      	b.n	80015a8 <__aeabi_i2d+0x30>
 80015ea:	46c0      	nop			; (mov r8, r8)
 80015ec:	0000041e 	.word	0x0000041e
 80015f0:	00000433 	.word	0x00000433
 80015f4:	00000413 	.word	0x00000413
 80015f8:	800fffff 	.word	0x800fffff

080015fc <__aeabi_cdrcmple>:
 80015fc:	4684      	mov	ip, r0
 80015fe:	1c10      	adds	r0, r2, #0
 8001600:	4662      	mov	r2, ip
 8001602:	468c      	mov	ip, r1
 8001604:	1c19      	adds	r1, r3, #0
 8001606:	4663      	mov	r3, ip
 8001608:	e000      	b.n	800160c <__aeabi_cdcmpeq>
 800160a:	46c0      	nop			; (mov r8, r8)

0800160c <__aeabi_cdcmpeq>:
 800160c:	b51f      	push	{r0, r1, r2, r3, r4, lr}
 800160e:	f000 f8ef 	bl	80017f0 <__ledf2>
 8001612:	2800      	cmp	r0, #0
 8001614:	d401      	bmi.n	800161a <__aeabi_cdcmpeq+0xe>
 8001616:	2100      	movs	r1, #0
 8001618:	42c8      	cmn	r0, r1
 800161a:	bd1f      	pop	{r0, r1, r2, r3, r4, pc}

0800161c <__aeabi_dcmpeq>:
 800161c:	b510      	push	{r4, lr}
 800161e:	f000 f849 	bl	80016b4 <__eqdf2>
 8001622:	4240      	negs	r0, r0
 8001624:	3001      	adds	r0, #1
 8001626:	bd10      	pop	{r4, pc}

08001628 <__aeabi_dcmplt>:
 8001628:	b510      	push	{r4, lr}
 800162a:	f000 f8e1 	bl	80017f0 <__ledf2>
 800162e:	2800      	cmp	r0, #0
 8001630:	db01      	blt.n	8001636 <__aeabi_dcmplt+0xe>
 8001632:	2000      	movs	r0, #0
 8001634:	bd10      	pop	{r4, pc}
 8001636:	2001      	movs	r0, #1
 8001638:	bd10      	pop	{r4, pc}
 800163a:	46c0      	nop			; (mov r8, r8)

0800163c <__aeabi_dcmple>:
 800163c:	b510      	push	{r4, lr}
 800163e:	f000 f8d7 	bl	80017f0 <__ledf2>
 8001642:	2800      	cmp	r0, #0
 8001644:	dd01      	ble.n	800164a <__aeabi_dcmple+0xe>
 8001646:	2000      	movs	r0, #0
 8001648:	bd10      	pop	{r4, pc}
 800164a:	2001      	movs	r0, #1
 800164c:	bd10      	pop	{r4, pc}
 800164e:	46c0      	nop			; (mov r8, r8)

08001650 <__aeabi_dcmpgt>:
 8001650:	b510      	push	{r4, lr}
 8001652:	f000 f869 	bl	8001728 <__gedf2>
 8001656:	2800      	cmp	r0, #0
 8001658:	dc01      	bgt.n	800165e <__aeabi_dcmpgt+0xe>
 800165a:	2000      	movs	r0, #0
 800165c:	bd10      	pop	{r4, pc}
 800165e:	2001      	movs	r0, #1
 8001660:	bd10      	pop	{r4, pc}
 8001662:	46c0      	nop			; (mov r8, r8)

08001664 <__aeabi_dcmpge>:
 8001664:	b510      	push	{r4, lr}
 8001666:	f000 f85f 	bl	8001728 <__gedf2>
 800166a:	2800      	cmp	r0, #0
 800166c:	da01      	bge.n	8001672 <__aeabi_dcmpge+0xe>
 800166e:	2000      	movs	r0, #0
 8001670:	bd10      	pop	{r4, pc}
 8001672:	2001      	movs	r0, #1
 8001674:	bd10      	pop	{r4, pc}
 8001676:	46c0      	nop			; (mov r8, r8)

08001678 <__clzsi2>:
 8001678:	211c      	movs	r1, #28
 800167a:	2301      	movs	r3, #1
 800167c:	041b      	lsls	r3, r3, #16
 800167e:	4298      	cmp	r0, r3
 8001680:	d301      	bcc.n	8001686 <__clzsi2+0xe>
 8001682:	0c00      	lsrs	r0, r0, #16
 8001684:	3910      	subs	r1, #16
 8001686:	0a1b      	lsrs	r3, r3, #8
 8001688:	4298      	cmp	r0, r3
 800168a:	d301      	bcc.n	8001690 <__clzsi2+0x18>
 800168c:	0a00      	lsrs	r0, r0, #8
 800168e:	3908      	subs	r1, #8
 8001690:	091b      	lsrs	r3, r3, #4
 8001692:	4298      	cmp	r0, r3
 8001694:	d301      	bcc.n	800169a <__clzsi2+0x22>
 8001696:	0900      	lsrs	r0, r0, #4
 8001698:	3904      	subs	r1, #4
 800169a:	a202      	add	r2, pc, #8	; (adr r2, 80016a4 <__clzsi2+0x2c>)
 800169c:	5c10      	ldrb	r0, [r2, r0]
 800169e:	1840      	adds	r0, r0, r1
 80016a0:	4770      	bx	lr
 80016a2:	46c0      	nop			; (mov r8, r8)
 80016a4:	02020304 	.word	0x02020304
 80016a8:	01010101 	.word	0x01010101
	...

080016b4 <__eqdf2>:
 80016b4:	b5f0      	push	{r4, r5, r6, r7, lr}
 80016b6:	464f      	mov	r7, r9
 80016b8:	4646      	mov	r6, r8
 80016ba:	46d6      	mov	lr, sl
 80016bc:	005c      	lsls	r4, r3, #1
 80016be:	b5c0      	push	{r6, r7, lr}
 80016c0:	031f      	lsls	r7, r3, #12
 80016c2:	0fdb      	lsrs	r3, r3, #31
 80016c4:	469a      	mov	sl, r3
 80016c6:	4b17      	ldr	r3, [pc, #92]	; (8001724 <__eqdf2+0x70>)
 80016c8:	030e      	lsls	r6, r1, #12
 80016ca:	004d      	lsls	r5, r1, #1
 80016cc:	4684      	mov	ip, r0
 80016ce:	4680      	mov	r8, r0
 80016d0:	0b36      	lsrs	r6, r6, #12
 80016d2:	0d6d      	lsrs	r5, r5, #21
 80016d4:	0fc9      	lsrs	r1, r1, #31
 80016d6:	4691      	mov	r9, r2
 80016d8:	0b3f      	lsrs	r7, r7, #12
 80016da:	0d64      	lsrs	r4, r4, #21
 80016dc:	2001      	movs	r0, #1
 80016de:	429d      	cmp	r5, r3
 80016e0:	d008      	beq.n	80016f4 <__eqdf2+0x40>
 80016e2:	429c      	cmp	r4, r3
 80016e4:	d001      	beq.n	80016ea <__eqdf2+0x36>
 80016e6:	42a5      	cmp	r5, r4
 80016e8:	d00b      	beq.n	8001702 <__eqdf2+0x4e>
 80016ea:	bc1c      	pop	{r2, r3, r4}
 80016ec:	4690      	mov	r8, r2
 80016ee:	4699      	mov	r9, r3
 80016f0:	46a2      	mov	sl, r4
 80016f2:	bdf0      	pop	{r4, r5, r6, r7, pc}
 80016f4:	4663      	mov	r3, ip
 80016f6:	4333      	orrs	r3, r6
 80016f8:	d1f7      	bne.n	80016ea <__eqdf2+0x36>
 80016fa:	42ac      	cmp	r4, r5
 80016fc:	d1f5      	bne.n	80016ea <__eqdf2+0x36>
 80016fe:	433a      	orrs	r2, r7
 8001700:	d1f3      	bne.n	80016ea <__eqdf2+0x36>
 8001702:	2001      	movs	r0, #1
 8001704:	42be      	cmp	r6, r7
 8001706:	d1f0      	bne.n	80016ea <__eqdf2+0x36>
 8001708:	45c8      	cmp	r8, r9
 800170a:	d1ee      	bne.n	80016ea <__eqdf2+0x36>
 800170c:	4551      	cmp	r1, sl
 800170e:	d007      	beq.n	8001720 <__eqdf2+0x6c>
 8001710:	2d00      	cmp	r5, #0
 8001712:	d1ea      	bne.n	80016ea <__eqdf2+0x36>
 8001714:	4663      	mov	r3, ip
 8001716:	431e      	orrs	r6, r3
 8001718:	0030      	movs	r0, r6
 800171a:	1e46      	subs	r6, r0, #1
 800171c:	41b0      	sbcs	r0, r6
 800171e:	e7e4      	b.n	80016ea <__eqdf2+0x36>
 8001720:	2000      	movs	r0, #0
 8001722:	e7e2      	b.n	80016ea <__eqdf2+0x36>
 8001724:	000007ff 	.word	0x000007ff

08001728 <__gedf2>:
 8001728:	b5f0      	push	{r4, r5, r6, r7, lr}
 800172a:	4645      	mov	r5, r8
 800172c:	46de      	mov	lr, fp
 800172e:	4657      	mov	r7, sl
 8001730:	464e      	mov	r6, r9
 8001732:	b5e0      	push	{r5, r6, r7, lr}
 8001734:	031f      	lsls	r7, r3, #12
 8001736:	0b3d      	lsrs	r5, r7, #12
 8001738:	4f2c      	ldr	r7, [pc, #176]	; (80017ec <__gedf2+0xc4>)
 800173a:	030e      	lsls	r6, r1, #12
 800173c:	004c      	lsls	r4, r1, #1
 800173e:	46ab      	mov	fp, r5
 8001740:	005d      	lsls	r5, r3, #1
 8001742:	4684      	mov	ip, r0
 8001744:	0b36      	lsrs	r6, r6, #12
 8001746:	0d64      	lsrs	r4, r4, #21
 8001748:	0fc9      	lsrs	r1, r1, #31
 800174a:	4690      	mov	r8, r2
 800174c:	0d6d      	lsrs	r5, r5, #21
 800174e:	0fdb      	lsrs	r3, r3, #31
 8001750:	42bc      	cmp	r4, r7
 8001752:	d02a      	beq.n	80017aa <__gedf2+0x82>
 8001754:	4f25      	ldr	r7, [pc, #148]	; (80017ec <__gedf2+0xc4>)
 8001756:	42bd      	cmp	r5, r7
 8001758:	d02d      	beq.n	80017b6 <__gedf2+0x8e>
 800175a:	2c00      	cmp	r4, #0
 800175c:	d10f      	bne.n	800177e <__gedf2+0x56>
 800175e:	4330      	orrs	r0, r6
 8001760:	0007      	movs	r7, r0
 8001762:	4681      	mov	r9, r0
 8001764:	4278      	negs	r0, r7
 8001766:	4178      	adcs	r0, r7
 8001768:	b2c0      	uxtb	r0, r0
 800176a:	2d00      	cmp	r5, #0
 800176c:	d117      	bne.n	800179e <__gedf2+0x76>
 800176e:	465f      	mov	r7, fp
 8001770:	433a      	orrs	r2, r7
 8001772:	d114      	bne.n	800179e <__gedf2+0x76>
 8001774:	464b      	mov	r3, r9
 8001776:	2000      	movs	r0, #0
 8001778:	2b00      	cmp	r3, #0
 800177a:	d00a      	beq.n	8001792 <__gedf2+0x6a>
 800177c:	e006      	b.n	800178c <__gedf2+0x64>
 800177e:	2d00      	cmp	r5, #0
 8001780:	d102      	bne.n	8001788 <__gedf2+0x60>
 8001782:	4658      	mov	r0, fp
 8001784:	4302      	orrs	r2, r0
 8001786:	d001      	beq.n	800178c <__gedf2+0x64>
 8001788:	4299      	cmp	r1, r3
 800178a:	d018      	beq.n	80017be <__gedf2+0x96>
 800178c:	4248      	negs	r0, r1
 800178e:	2101      	movs	r1, #1
 8001790:	4308      	orrs	r0, r1
 8001792:	bc3c      	pop	{r2, r3, r4, r5}
 8001794:	4690      	mov	r8, r2
 8001796:	4699      	mov	r9, r3
 8001798:	46a2      	mov	sl, r4
 800179a:	46ab      	mov	fp, r5
 800179c:	bdf0      	pop	{r4, r5, r6, r7, pc}
 800179e:	2800      	cmp	r0, #0
 80017a0:	d0f2      	beq.n	8001788 <__gedf2+0x60>
 80017a2:	2001      	movs	r0, #1
 80017a4:	3b01      	subs	r3, #1
 80017a6:	4318      	orrs	r0, r3
 80017a8:	e7f3      	b.n	8001792 <__gedf2+0x6a>
 80017aa:	0037      	movs	r7, r6
 80017ac:	4307      	orrs	r7, r0
 80017ae:	d0d1      	beq.n	8001754 <__gedf2+0x2c>
 80017b0:	2002      	movs	r0, #2
 80017b2:	4240      	negs	r0, r0
 80017b4:	e7ed      	b.n	8001792 <__gedf2+0x6a>
 80017b6:	465f      	mov	r7, fp
 80017b8:	4317      	orrs	r7, r2
 80017ba:	d0ce      	beq.n	800175a <__gedf2+0x32>
 80017bc:	e7f8      	b.n	80017b0 <__gedf2+0x88>
 80017be:	42ac      	cmp	r4, r5
 80017c0:	dce4      	bgt.n	800178c <__gedf2+0x64>
 80017c2:	da03      	bge.n	80017cc <__gedf2+0xa4>
 80017c4:	1e48      	subs	r0, r1, #1
 80017c6:	2101      	movs	r1, #1
 80017c8:	4308      	orrs	r0, r1
 80017ca:	e7e2      	b.n	8001792 <__gedf2+0x6a>
 80017cc:	455e      	cmp	r6, fp
 80017ce:	d8dd      	bhi.n	800178c <__gedf2+0x64>
 80017d0:	d006      	beq.n	80017e0 <__gedf2+0xb8>
 80017d2:	2000      	movs	r0, #0
 80017d4:	455e      	cmp	r6, fp
 80017d6:	d2dc      	bcs.n	8001792 <__gedf2+0x6a>
 80017d8:	2301      	movs	r3, #1
 80017da:	1e48      	subs	r0, r1, #1
 80017dc:	4318      	orrs	r0, r3
 80017de:	e7d8      	b.n	8001792 <__gedf2+0x6a>
 80017e0:	45c4      	cmp	ip, r8
 80017e2:	d8d3      	bhi.n	800178c <__gedf2+0x64>
 80017e4:	2000      	movs	r0, #0
 80017e6:	45c4      	cmp	ip, r8
 80017e8:	d3f6      	bcc.n	80017d8 <__gedf2+0xb0>
 80017ea:	e7d2      	b.n	8001792 <__gedf2+0x6a>
 80017ec:	000007ff 	.word	0x000007ff

080017f0 <__ledf2>:
 80017f0:	b5f0      	push	{r4, r5, r6, r7, lr}
 80017f2:	464e      	mov	r6, r9
 80017f4:	4645      	mov	r5, r8
 80017f6:	46de      	mov	lr, fp
 80017f8:	4657      	mov	r7, sl
 80017fa:	005c      	lsls	r4, r3, #1
 80017fc:	b5e0      	push	{r5, r6, r7, lr}
 80017fe:	031f      	lsls	r7, r3, #12
 8001800:	0fdb      	lsrs	r3, r3, #31
 8001802:	4699      	mov	r9, r3
 8001804:	4b2a      	ldr	r3, [pc, #168]	; (80018b0 <__ledf2+0xc0>)
 8001806:	030e      	lsls	r6, r1, #12
 8001808:	004d      	lsls	r5, r1, #1
 800180a:	0fc9      	lsrs	r1, r1, #31
 800180c:	4684      	mov	ip, r0
 800180e:	0b36      	lsrs	r6, r6, #12
 8001810:	0d6d      	lsrs	r5, r5, #21
 8001812:	468b      	mov	fp, r1
 8001814:	4690      	mov	r8, r2
 8001816:	0b3f      	lsrs	r7, r7, #12
 8001818:	0d64      	lsrs	r4, r4, #21
 800181a:	429d      	cmp	r5, r3
 800181c:	d020      	beq.n	8001860 <__ledf2+0x70>
 800181e:	4b24      	ldr	r3, [pc, #144]	; (80018b0 <__ledf2+0xc0>)
 8001820:	429c      	cmp	r4, r3
 8001822:	d022      	beq.n	800186a <__ledf2+0x7a>
 8001824:	2d00      	cmp	r5, #0
 8001826:	d112      	bne.n	800184e <__ledf2+0x5e>
 8001828:	4330      	orrs	r0, r6
 800182a:	4243      	negs	r3, r0
 800182c:	4143      	adcs	r3, r0
 800182e:	b2db      	uxtb	r3, r3
 8001830:	2c00      	cmp	r4, #0
 8001832:	d01f      	beq.n	8001874 <__ledf2+0x84>
 8001834:	2b00      	cmp	r3, #0
 8001836:	d00c      	beq.n	8001852 <__ledf2+0x62>
 8001838:	464b      	mov	r3, r9
 800183a:	2001      	movs	r0, #1
 800183c:	3b01      	subs	r3, #1
 800183e:	4303      	orrs	r3, r0
 8001840:	0018      	movs	r0, r3
 8001842:	bc3c      	pop	{r2, r3, r4, r5}
 8001844:	4690      	mov	r8, r2
 8001846:	4699      	mov	r9, r3
 8001848:	46a2      	mov	sl, r4
 800184a:	46ab      	mov	fp, r5
 800184c:	bdf0      	pop	{r4, r5, r6, r7, pc}
 800184e:	2c00      	cmp	r4, #0
 8001850:	d016      	beq.n	8001880 <__ledf2+0x90>
 8001852:	45cb      	cmp	fp, r9
 8001854:	d017      	beq.n	8001886 <__ledf2+0x96>
 8001856:	465b      	mov	r3, fp
 8001858:	4259      	negs	r1, r3
 800185a:	2301      	movs	r3, #1
 800185c:	430b      	orrs	r3, r1
 800185e:	e7ef      	b.n	8001840 <__ledf2+0x50>
 8001860:	0031      	movs	r1, r6
 8001862:	2302      	movs	r3, #2
 8001864:	4301      	orrs	r1, r0
 8001866:	d1eb      	bne.n	8001840 <__ledf2+0x50>
 8001868:	e7d9      	b.n	800181e <__ledf2+0x2e>
 800186a:	0039      	movs	r1, r7
 800186c:	2302      	movs	r3, #2
 800186e:	4311      	orrs	r1, r2
 8001870:	d1e6      	bne.n	8001840 <__ledf2+0x50>
 8001872:	e7d7      	b.n	8001824 <__ledf2+0x34>
 8001874:	433a      	orrs	r2, r7
 8001876:	d1dd      	bne.n	8001834 <__ledf2+0x44>
 8001878:	2300      	movs	r3, #0
 800187a:	2800      	cmp	r0, #0
 800187c:	d0e0      	beq.n	8001840 <__ledf2+0x50>
 800187e:	e7ea      	b.n	8001856 <__ledf2+0x66>
 8001880:	433a      	orrs	r2, r7
 8001882:	d1e6      	bne.n	8001852 <__ledf2+0x62>
 8001884:	e7e7      	b.n	8001856 <__ledf2+0x66>
 8001886:	42a5      	cmp	r5, r4
 8001888:	dce5      	bgt.n	8001856 <__ledf2+0x66>
 800188a:	db05      	blt.n	8001898 <__ledf2+0xa8>
 800188c:	42be      	cmp	r6, r7
 800188e:	d8e2      	bhi.n	8001856 <__ledf2+0x66>
 8001890:	d007      	beq.n	80018a2 <__ledf2+0xb2>
 8001892:	2300      	movs	r3, #0
 8001894:	42be      	cmp	r6, r7
 8001896:	d2d3      	bcs.n	8001840 <__ledf2+0x50>
 8001898:	4659      	mov	r1, fp
 800189a:	2301      	movs	r3, #1
 800189c:	3901      	subs	r1, #1
 800189e:	430b      	orrs	r3, r1
 80018a0:	e7ce      	b.n	8001840 <__ledf2+0x50>
 80018a2:	45c4      	cmp	ip, r8
 80018a4:	d8d7      	bhi.n	8001856 <__ledf2+0x66>
 80018a6:	2300      	movs	r3, #0
 80018a8:	45c4      	cmp	ip, r8
 80018aa:	d3f5      	bcc.n	8001898 <__ledf2+0xa8>
 80018ac:	e7c8      	b.n	8001840 <__ledf2+0x50>
 80018ae:	46c0      	nop			; (mov r8, r8)
 80018b0:	000007ff 	.word	0x000007ff

080018b4 <init_ADC>:
 */

#include "ADC.h"

void init_ADC(void)
{
 80018b4:	b580      	push	{r7, lr}
 80018b6:	af00      	add	r7, sp, #0
	RCC->APB2ENR |= RCC_APB2ENR_ADCEN; //enable clock for ADC
 80018b8:	4b1e      	ldr	r3, [pc, #120]	; (8001934 <init_ADC+0x80>)
 80018ba:	4a1e      	ldr	r2, [pc, #120]	; (8001934 <init_ADC+0x80>)
 80018bc:	6992      	ldr	r2, [r2, #24]
 80018be:	2180      	movs	r1, #128	; 0x80
 80018c0:	0089      	lsls	r1, r1, #2
 80018c2:	430a      	orrs	r2, r1
 80018c4:	619a      	str	r2, [r3, #24]
	RCC->AHBENR |= RCC_AHBENR_GPIOAEN; //enable clock for port which ADC samples from
 80018c6:	4b1b      	ldr	r3, [pc, #108]	; (8001934 <init_ADC+0x80>)
 80018c8:	4a1a      	ldr	r2, [pc, #104]	; (8001934 <init_ADC+0x80>)
 80018ca:	6952      	ldr	r2, [r2, #20]
 80018cc:	2180      	movs	r1, #128	; 0x80
 80018ce:	0289      	lsls	r1, r1, #10
 80018d0:	430a      	orrs	r2, r1
 80018d2:	615a      	str	r2, [r3, #20]
	GPIOA->MODER |= GPIO_MODER_MODER5; //set PA5 to analogue mode
 80018d4:	2390      	movs	r3, #144	; 0x90
 80018d6:	05db      	lsls	r3, r3, #23
 80018d8:	2290      	movs	r2, #144	; 0x90
 80018da:	05d2      	lsls	r2, r2, #23
 80018dc:	6812      	ldr	r2, [r2, #0]
 80018de:	21c0      	movs	r1, #192	; 0xc0
 80018e0:	0109      	lsls	r1, r1, #4
 80018e2:	430a      	orrs	r2, r1
 80018e4:	601a      	str	r2, [r3, #0]
	ADC1->CHSELR |= ADC_CHSELR_CHSEL5; // select channel 5
 80018e6:	4b14      	ldr	r3, [pc, #80]	; (8001938 <init_ADC+0x84>)
 80018e8:	4a13      	ldr	r2, [pc, #76]	; (8001938 <init_ADC+0x84>)
 80018ea:	6a92      	ldr	r2, [r2, #40]	; 0x28
 80018ec:	2120      	movs	r1, #32
 80018ee:	430a      	orrs	r2, r1
 80018f0:	629a      	str	r2, [r3, #40]	; 0x28
	ADC1->CFGR1 |= ADC_CFGR1_RES_1;    // resolution to 8 bit
 80018f2:	4b11      	ldr	r3, [pc, #68]	; (8001938 <init_ADC+0x84>)
 80018f4:	4a10      	ldr	r2, [pc, #64]	; (8001938 <init_ADC+0x84>)
 80018f6:	68d2      	ldr	r2, [r2, #12]
 80018f8:	2110      	movs	r1, #16
 80018fa:	430a      	orrs	r2, r1
 80018fc:	60da      	str	r2, [r3, #12]
	ADC1->CR |= ADC_CR_ADCAL;         // set ADCAL high and wait for it to go low
 80018fe:	4b0e      	ldr	r3, [pc, #56]	; (8001938 <init_ADC+0x84>)
 8001900:	4a0d      	ldr	r2, [pc, #52]	; (8001938 <init_ADC+0x84>)
 8001902:	6892      	ldr	r2, [r2, #8]
 8001904:	2180      	movs	r1, #128	; 0x80
 8001906:	0609      	lsls	r1, r1, #24
 8001908:	430a      	orrs	r2, r1
 800190a:	609a      	str	r2, [r3, #8]
	while( (ADC1->CR & ADC_CR_ADCAL) != 0);
 800190c:	46c0      	nop			; (mov r8, r8)
 800190e:	4b0a      	ldr	r3, [pc, #40]	; (8001938 <init_ADC+0x84>)
 8001910:	689b      	ldr	r3, [r3, #8]
 8001912:	2b00      	cmp	r3, #0
 8001914:	dbfb      	blt.n	800190e <init_ADC+0x5a>
	ADC1->CR |= ADC_CR_ADEN;           // set ADEN=1 in the ADC_CR register
 8001916:	4b08      	ldr	r3, [pc, #32]	; (8001938 <init_ADC+0x84>)
 8001918:	4a07      	ldr	r2, [pc, #28]	; (8001938 <init_ADC+0x84>)
 800191a:	6892      	ldr	r2, [r2, #8]
 800191c:	2101      	movs	r1, #1
 800191e:	430a      	orrs	r2, r1
 8001920:	609a      	str	r2, [r3, #8]
	while((ADC1->ISR & ADC_ISR_ADRDY) == 0); //wait until ADRDY==1 in ADC_ISR
 8001922:	46c0      	nop			; (mov r8, r8)
 8001924:	4b04      	ldr	r3, [pc, #16]	; (8001938 <init_ADC+0x84>)
 8001926:	681b      	ldr	r3, [r3, #0]
 8001928:	2201      	movs	r2, #1
 800192a:	4013      	ands	r3, r2
 800192c:	d0fa      	beq.n	8001924 <init_ADC+0x70>
}
 800192e:	46c0      	nop			; (mov r8, r8)
 8001930:	46bd      	mov	sp, r7
 8001932:	bd80      	pop	{r7, pc}
 8001934:	40021000 	.word	0x40021000
 8001938:	40012400 	.word	0x40012400

0800193c <adc_read>:
uint8_t adc_read(void)
{
 800193c:	b580      	push	{r7, lr}
 800193e:	b082      	sub	sp, #8
 8001940:	af00      	add	r7, sp, #0
	ADC1->CR |= ADC_CR_ADSTART;
 8001942:	4b0b      	ldr	r3, [pc, #44]	; (8001970 <adc_read+0x34>)
 8001944:	4a0a      	ldr	r2, [pc, #40]	; (8001970 <adc_read+0x34>)
 8001946:	6892      	ldr	r2, [r2, #8]
 8001948:	2104      	movs	r1, #4
 800194a:	430a      	orrs	r2, r1
 800194c:	609a      	str	r2, [r3, #8]
	// wait for end of conversion: EOC == 1. Not necessary to clear EOC as we read from DR
	while((ADC1->ISR & ADC_ISR_EOC) == 0);
 800194e:	46c0      	nop			; (mov r8, r8)
 8001950:	4b07      	ldr	r3, [pc, #28]	; (8001970 <adc_read+0x34>)
 8001952:	681b      	ldr	r3, [r3, #0]
 8001954:	2204      	movs	r2, #4
 8001956:	4013      	ands	r3, r2
 8001958:	d0fa      	beq.n	8001950 <adc_read+0x14>
	uint8_t val=ADC1->DR;
 800195a:	4b05      	ldr	r3, [pc, #20]	; (8001970 <adc_read+0x34>)
 800195c:	6c1a      	ldr	r2, [r3, #64]	; 0x40
 800195e:	1dfb      	adds	r3, r7, #7
 8001960:	701a      	strb	r2, [r3, #0]
	return val;
 8001962:	1dfb      	adds	r3, r7, #7
 8001964:	781b      	ldrb	r3, [r3, #0]
}
 8001966:	0018      	movs	r0, r3
 8001968:	46bd      	mov	sp, r7
 800196a:	b002      	add	sp, #8
 800196c:	bd80      	pop	{r7, pc}
 800196e:	46c0      	nop			; (mov r8, r8)
 8001970:	40012400 	.word	0x40012400

08001974 <init_LEDs>:
 *      Author: cal
 */
#include "LED.h"

void init_LEDs(void)
{
 8001974:	b580      	push	{r7, lr}
 8001976:	af00      	add	r7, sp, #0
	GPIOB->MODER |= (GPIO_MODER_MODER0_0 | GPIO_MODER_MODER1_0 | GPIO_MODER_MODER2_0 | GPIO_MODER_MODER3_0 |
 8001978:	4b04      	ldr	r3, [pc, #16]	; (800198c <init_LEDs+0x18>)
 800197a:	4a04      	ldr	r2, [pc, #16]	; (800198c <init_LEDs+0x18>)
 800197c:	6812      	ldr	r2, [r2, #0]
 800197e:	4904      	ldr	r1, [pc, #16]	; (8001990 <init_LEDs+0x1c>)
 8001980:	430a      	orrs	r2, r1
 8001982:	601a      	str	r2, [r3, #0]
	        GPIO_MODER_MODER4_0 | GPIO_MODER_MODER5_0 | GPIO_MODER_MODER6_0 | GPIO_MODER_MODER7_0);
}
 8001984:	46c0      	nop			; (mov r8, r8)
 8001986:	46bd      	mov	sp, r7
 8001988:	bd80      	pop	{r7, pc}
 800198a:	46c0      	nop			; (mov r8, r8)
 800198c:	48000400 	.word	0x48000400
 8001990:	00005555 	.word	0x00005555

08001994 <light_on>:



void light_on(uint8_t LED)
{
 8001994:	b580      	push	{r7, lr}
 8001996:	b082      	sub	sp, #8
 8001998:	af00      	add	r7, sp, #0
 800199a:	0002      	movs	r2, r0
 800199c:	1dfb      	adds	r3, r7, #7
 800199e:	701a      	strb	r2, [r3, #0]
	switch(LED){
 80019a0:	1dfb      	adds	r3, r7, #7
 80019a2:	781b      	ldrb	r3, [r3, #0]
 80019a4:	2b07      	cmp	r3, #7
 80019a6:	d83c      	bhi.n	8001a22 <light_on+0x8e>
 80019a8:	009a      	lsls	r2, r3, #2
 80019aa:	4b20      	ldr	r3, [pc, #128]	; (8001a2c <light_on+0x98>)
 80019ac:	18d3      	adds	r3, r2, r3
 80019ae:	681b      	ldr	r3, [r3, #0]
 80019b0:	469f      	mov	pc, r3
		case 0:
			GPIOB->ODR=GPIOB->ODR|0b1;
 80019b2:	4b1f      	ldr	r3, [pc, #124]	; (8001a30 <light_on+0x9c>)
 80019b4:	4a1e      	ldr	r2, [pc, #120]	; (8001a30 <light_on+0x9c>)
 80019b6:	6952      	ldr	r2, [r2, #20]
 80019b8:	2101      	movs	r1, #1
 80019ba:	430a      	orrs	r2, r1
 80019bc:	615a      	str	r2, [r3, #20]
			break;
 80019be:	e031      	b.n	8001a24 <light_on+0x90>
		case 1:
			GPIOB->ODR=GPIOB->ODR|0b10;
 80019c0:	4b1b      	ldr	r3, [pc, #108]	; (8001a30 <light_on+0x9c>)
 80019c2:	4a1b      	ldr	r2, [pc, #108]	; (8001a30 <light_on+0x9c>)
 80019c4:	6952      	ldr	r2, [r2, #20]
 80019c6:	2102      	movs	r1, #2
 80019c8:	430a      	orrs	r2, r1
 80019ca:	615a      	str	r2, [r3, #20]
			break;
 80019cc:	e02a      	b.n	8001a24 <light_on+0x90>
		case 2:
			GPIOB->ODR=GPIOB->ODR|0b100;
 80019ce:	4b18      	ldr	r3, [pc, #96]	; (8001a30 <light_on+0x9c>)
 80019d0:	4a17      	ldr	r2, [pc, #92]	; (8001a30 <light_on+0x9c>)
 80019d2:	6952      	ldr	r2, [r2, #20]
 80019d4:	2104      	movs	r1, #4
 80019d6:	430a      	orrs	r2, r1
 80019d8:	615a      	str	r2, [r3, #20]
			break;
 80019da:	e023      	b.n	8001a24 <light_on+0x90>
		case 3:
			GPIOB->ODR=GPIOB->ODR|0b1000;
 80019dc:	4b14      	ldr	r3, [pc, #80]	; (8001a30 <light_on+0x9c>)
 80019de:	4a14      	ldr	r2, [pc, #80]	; (8001a30 <light_on+0x9c>)
 80019e0:	6952      	ldr	r2, [r2, #20]
 80019e2:	2108      	movs	r1, #8
 80019e4:	430a      	orrs	r2, r1
 80019e6:	615a      	str	r2, [r3, #20]
			break;
 80019e8:	e01c      	b.n	8001a24 <light_on+0x90>
		case 4:
			GPIOB->ODR=GPIOB->ODR|0b10000;
 80019ea:	4b11      	ldr	r3, [pc, #68]	; (8001a30 <light_on+0x9c>)
 80019ec:	4a10      	ldr	r2, [pc, #64]	; (8001a30 <light_on+0x9c>)
 80019ee:	6952      	ldr	r2, [r2, #20]
 80019f0:	2110      	movs	r1, #16
 80019f2:	430a      	orrs	r2, r1
 80019f4:	615a      	str	r2, [r3, #20]
			break;
 80019f6:	e015      	b.n	8001a24 <light_on+0x90>
		case 5:
			GPIOB->ODR=GPIOB->ODR|0b100000;
 80019f8:	4b0d      	ldr	r3, [pc, #52]	; (8001a30 <light_on+0x9c>)
 80019fa:	4a0d      	ldr	r2, [pc, #52]	; (8001a30 <light_on+0x9c>)
 80019fc:	6952      	ldr	r2, [r2, #20]
 80019fe:	2120      	movs	r1, #32
 8001a00:	430a      	orrs	r2, r1
 8001a02:	615a      	str	r2, [r3, #20]
			break;
 8001a04:	e00e      	b.n	8001a24 <light_on+0x90>
		case 6:
			GPIOB->ODR=GPIOB->ODR|0b1000000;
 8001a06:	4b0a      	ldr	r3, [pc, #40]	; (8001a30 <light_on+0x9c>)
 8001a08:	4a09      	ldr	r2, [pc, #36]	; (8001a30 <light_on+0x9c>)
 8001a0a:	6952      	ldr	r2, [r2, #20]
 8001a0c:	2140      	movs	r1, #64	; 0x40
 8001a0e:	430a      	orrs	r2, r1
 8001a10:	615a      	str	r2, [r3, #20]
			break;
 8001a12:	e007      	b.n	8001a24 <light_on+0x90>
		case 7:
			GPIOB->ODR=GPIOB->ODR|0b10000000;
 8001a14:	4b06      	ldr	r3, [pc, #24]	; (8001a30 <light_on+0x9c>)
 8001a16:	4a06      	ldr	r2, [pc, #24]	; (8001a30 <light_on+0x9c>)
 8001a18:	6952      	ldr	r2, [r2, #20]
 8001a1a:	2180      	movs	r1, #128	; 0x80
 8001a1c:	430a      	orrs	r2, r1
 8001a1e:	615a      	str	r2, [r3, #20]
			break;
 8001a20:	e000      	b.n	8001a24 <light_on+0x90>
		default:
			break;
 8001a22:	46c0      	nop			; (mov r8, r8)
	}

}
 8001a24:	46c0      	nop			; (mov r8, r8)
 8001a26:	46bd      	mov	sp, r7
 8001a28:	b002      	add	sp, #8
 8001a2a:	bd80      	pop	{r7, pc}
 8001a2c:	08002350 	.word	0x08002350
 8001a30:	48000400 	.word	0x48000400

08001a34 <light_off>:

void light_off(uint8_t LED)
{
 8001a34:	b580      	push	{r7, lr}
 8001a36:	b082      	sub	sp, #8
 8001a38:	af00      	add	r7, sp, #0
 8001a3a:	0002      	movs	r2, r0
 8001a3c:	1dfb      	adds	r3, r7, #7
 8001a3e:	701a      	strb	r2, [r3, #0]
	switch(LED){
 8001a40:	1dfb      	adds	r3, r7, #7
 8001a42:	781b      	ldrb	r3, [r3, #0]
 8001a44:	2b07      	cmp	r3, #7
 8001a46:	d83c      	bhi.n	8001ac2 <light_off+0x8e>
 8001a48:	009a      	lsls	r2, r3, #2
 8001a4a:	4b20      	ldr	r3, [pc, #128]	; (8001acc <light_off+0x98>)
 8001a4c:	18d3      	adds	r3, r2, r3
 8001a4e:	681b      	ldr	r3, [r3, #0]
 8001a50:	469f      	mov	pc, r3
		case 0:
			GPIOB->ODR=GPIOB->ODR&0b11111110;
 8001a52:	4b1f      	ldr	r3, [pc, #124]	; (8001ad0 <light_off+0x9c>)
 8001a54:	4a1e      	ldr	r2, [pc, #120]	; (8001ad0 <light_off+0x9c>)
 8001a56:	6952      	ldr	r2, [r2, #20]
 8001a58:	21fe      	movs	r1, #254	; 0xfe
 8001a5a:	400a      	ands	r2, r1
 8001a5c:	615a      	str	r2, [r3, #20]
			break;
 8001a5e:	e031      	b.n	8001ac4 <light_off+0x90>
		case 1:
			GPIOB->ODR=GPIOB->ODR&0b11111101;
 8001a60:	4b1b      	ldr	r3, [pc, #108]	; (8001ad0 <light_off+0x9c>)
 8001a62:	4a1b      	ldr	r2, [pc, #108]	; (8001ad0 <light_off+0x9c>)
 8001a64:	6952      	ldr	r2, [r2, #20]
 8001a66:	21fd      	movs	r1, #253	; 0xfd
 8001a68:	400a      	ands	r2, r1
 8001a6a:	615a      	str	r2, [r3, #20]
			break;
 8001a6c:	e02a      	b.n	8001ac4 <light_off+0x90>
		case 2:
			GPIOB->ODR=GPIOB->ODR&0b11111011;
 8001a6e:	4b18      	ldr	r3, [pc, #96]	; (8001ad0 <light_off+0x9c>)
 8001a70:	4a17      	ldr	r2, [pc, #92]	; (8001ad0 <light_off+0x9c>)
 8001a72:	6952      	ldr	r2, [r2, #20]
 8001a74:	21fb      	movs	r1, #251	; 0xfb
 8001a76:	400a      	ands	r2, r1
 8001a78:	615a      	str	r2, [r3, #20]
			break;
 8001a7a:	e023      	b.n	8001ac4 <light_off+0x90>
		case 3:
			GPIOB->ODR=GPIOB->ODR&0b11110111;
 8001a7c:	4b14      	ldr	r3, [pc, #80]	; (8001ad0 <light_off+0x9c>)
 8001a7e:	4a14      	ldr	r2, [pc, #80]	; (8001ad0 <light_off+0x9c>)
 8001a80:	6952      	ldr	r2, [r2, #20]
 8001a82:	21f7      	movs	r1, #247	; 0xf7
 8001a84:	400a      	ands	r2, r1
 8001a86:	615a      	str	r2, [r3, #20]
			break;
 8001a88:	e01c      	b.n	8001ac4 <light_off+0x90>
		case 4:
			GPIOB->ODR=GPIOB->ODR&0b11101111;
 8001a8a:	4b11      	ldr	r3, [pc, #68]	; (8001ad0 <light_off+0x9c>)
 8001a8c:	4a10      	ldr	r2, [pc, #64]	; (8001ad0 <light_off+0x9c>)
 8001a8e:	6952      	ldr	r2, [r2, #20]
 8001a90:	21ef      	movs	r1, #239	; 0xef
 8001a92:	400a      	ands	r2, r1
 8001a94:	615a      	str	r2, [r3, #20]
			break;
 8001a96:	e015      	b.n	8001ac4 <light_off+0x90>
		case 5:
			GPIOB->ODR=GPIOB->ODR&0b11011111;
 8001a98:	4b0d      	ldr	r3, [pc, #52]	; (8001ad0 <light_off+0x9c>)
 8001a9a:	4a0d      	ldr	r2, [pc, #52]	; (8001ad0 <light_off+0x9c>)
 8001a9c:	6952      	ldr	r2, [r2, #20]
 8001a9e:	21df      	movs	r1, #223	; 0xdf
 8001aa0:	400a      	ands	r2, r1
 8001aa2:	615a      	str	r2, [r3, #20]
			break;
 8001aa4:	e00e      	b.n	8001ac4 <light_off+0x90>
		case 6:
			GPIOB->ODR=GPIOB->ODR&0b10111111;
 8001aa6:	4b0a      	ldr	r3, [pc, #40]	; (8001ad0 <light_off+0x9c>)
 8001aa8:	4a09      	ldr	r2, [pc, #36]	; (8001ad0 <light_off+0x9c>)
 8001aaa:	6952      	ldr	r2, [r2, #20]
 8001aac:	21bf      	movs	r1, #191	; 0xbf
 8001aae:	400a      	ands	r2, r1
 8001ab0:	615a      	str	r2, [r3, #20]
			break;
 8001ab2:	e007      	b.n	8001ac4 <light_off+0x90>
		case 7:
			GPIOB->ODR=GPIOB->ODR&0b01111111;
 8001ab4:	4b06      	ldr	r3, [pc, #24]	; (8001ad0 <light_off+0x9c>)
 8001ab6:	4a06      	ldr	r2, [pc, #24]	; (8001ad0 <light_off+0x9c>)
 8001ab8:	6952      	ldr	r2, [r2, #20]
 8001aba:	217f      	movs	r1, #127	; 0x7f
 8001abc:	400a      	ands	r2, r1
 8001abe:	615a      	str	r2, [r3, #20]
			break;
 8001ac0:	e000      	b.n	8001ac4 <light_off+0x90>
		default:
			break;
 8001ac2:	46c0      	nop			; (mov r8, r8)

	}
}
 8001ac4:	46c0      	nop			; (mov r8, r8)
 8001ac6:	46bd      	mov	sp, r7
 8001ac8:	b002      	add	sp, #8
 8001aca:	bd80      	pop	{r7, pc}
 8001acc:	08002370 	.word	0x08002370
 8001ad0:	48000400 	.word	0x48000400

08001ad4 <light_toggle>:

void light_toggle(uint8_t LED)
{
 8001ad4:	b580      	push	{r7, lr}
 8001ad6:	b082      	sub	sp, #8
 8001ad8:	af00      	add	r7, sp, #0
 8001ada:	0002      	movs	r2, r0
 8001adc:	1dfb      	adds	r3, r7, #7
 8001ade:	701a      	strb	r2, [r3, #0]
	switch(LED){
 8001ae0:	1dfb      	adds	r3, r7, #7
 8001ae2:	781b      	ldrb	r3, [r3, #0]
 8001ae4:	2b07      	cmp	r3, #7
 8001ae6:	d83c      	bhi.n	8001b62 <light_toggle+0x8e>
 8001ae8:	009a      	lsls	r2, r3, #2
 8001aea:	4b20      	ldr	r3, [pc, #128]	; (8001b6c <light_toggle+0x98>)
 8001aec:	18d3      	adds	r3, r2, r3
 8001aee:	681b      	ldr	r3, [r3, #0]
 8001af0:	469f      	mov	pc, r3
			case 0:
				GPIOB->ODR=GPIOB->ODR ^ (1 << 0);
 8001af2:	4b1f      	ldr	r3, [pc, #124]	; (8001b70 <light_toggle+0x9c>)
 8001af4:	4a1e      	ldr	r2, [pc, #120]	; (8001b70 <light_toggle+0x9c>)
 8001af6:	6952      	ldr	r2, [r2, #20]
 8001af8:	2101      	movs	r1, #1
 8001afa:	404a      	eors	r2, r1
 8001afc:	615a      	str	r2, [r3, #20]
				break;
 8001afe:	e031      	b.n	8001b64 <light_toggle+0x90>
			case 1:
				GPIOB->ODR=GPIOB->ODR ^ (1 << 1);
 8001b00:	4b1b      	ldr	r3, [pc, #108]	; (8001b70 <light_toggle+0x9c>)
 8001b02:	4a1b      	ldr	r2, [pc, #108]	; (8001b70 <light_toggle+0x9c>)
 8001b04:	6952      	ldr	r2, [r2, #20]
 8001b06:	2102      	movs	r1, #2
 8001b08:	404a      	eors	r2, r1
 8001b0a:	615a      	str	r2, [r3, #20]
				break;
 8001b0c:	e02a      	b.n	8001b64 <light_toggle+0x90>
			case 2:
				GPIOB->ODR=GPIOB->ODR ^ (1 << 2);
 8001b0e:	4b18      	ldr	r3, [pc, #96]	; (8001b70 <light_toggle+0x9c>)
 8001b10:	4a17      	ldr	r2, [pc, #92]	; (8001b70 <light_toggle+0x9c>)
 8001b12:	6952      	ldr	r2, [r2, #20]
 8001b14:	2104      	movs	r1, #4
 8001b16:	404a      	eors	r2, r1
 8001b18:	615a      	str	r2, [r3, #20]
				break;
 8001b1a:	e023      	b.n	8001b64 <light_toggle+0x90>
			case 3:
				GPIOB->ODR=GPIOB->ODR ^ (1 << 3);
 8001b1c:	4b14      	ldr	r3, [pc, #80]	; (8001b70 <light_toggle+0x9c>)
 8001b1e:	4a14      	ldr	r2, [pc, #80]	; (8001b70 <light_toggle+0x9c>)
 8001b20:	6952      	ldr	r2, [r2, #20]
 8001b22:	2108      	movs	r1, #8
 8001b24:	404a      	eors	r2, r1
 8001b26:	615a      	str	r2, [r3, #20]
				break;
 8001b28:	e01c      	b.n	8001b64 <light_toggle+0x90>
			case 4:
				GPIOB->ODR=GPIOB->ODR ^ (1 << 4);
 8001b2a:	4b11      	ldr	r3, [pc, #68]	; (8001b70 <light_toggle+0x9c>)
 8001b2c:	4a10      	ldr	r2, [pc, #64]	; (8001b70 <light_toggle+0x9c>)
 8001b2e:	6952      	ldr	r2, [r2, #20]
 8001b30:	2110      	movs	r1, #16
 8001b32:	404a      	eors	r2, r1
 8001b34:	615a      	str	r2, [r3, #20]
				break;
 8001b36:	e015      	b.n	8001b64 <light_toggle+0x90>
			case 5:
				GPIOB->ODR=GPIOB->ODR ^ (1 << 5);
 8001b38:	4b0d      	ldr	r3, [pc, #52]	; (8001b70 <light_toggle+0x9c>)
 8001b3a:	4a0d      	ldr	r2, [pc, #52]	; (8001b70 <light_toggle+0x9c>)
 8001b3c:	6952      	ldr	r2, [r2, #20]
 8001b3e:	2120      	movs	r1, #32
 8001b40:	404a      	eors	r2, r1
 8001b42:	615a      	str	r2, [r3, #20]
				break;
 8001b44:	e00e      	b.n	8001b64 <light_toggle+0x90>
			case 6:
				GPIOB->ODR=GPIOB->ODR ^ (1 << 6);
 8001b46:	4b0a      	ldr	r3, [pc, #40]	; (8001b70 <light_toggle+0x9c>)
 8001b48:	4a09      	ldr	r2, [pc, #36]	; (8001b70 <light_toggle+0x9c>)
 8001b4a:	6952      	ldr	r2, [r2, #20]
 8001b4c:	2140      	movs	r1, #64	; 0x40
 8001b4e:	404a      	eors	r2, r1
 8001b50:	615a      	str	r2, [r3, #20]
				break;
 8001b52:	e007      	b.n	8001b64 <light_toggle+0x90>
			case 7:
				GPIOB->ODR=GPIOB->ODR ^ (1 << 7);
 8001b54:	4b06      	ldr	r3, [pc, #24]	; (8001b70 <light_toggle+0x9c>)
 8001b56:	4a06      	ldr	r2, [pc, #24]	; (8001b70 <light_toggle+0x9c>)
 8001b58:	6952      	ldr	r2, [r2, #20]
 8001b5a:	2180      	movs	r1, #128	; 0x80
 8001b5c:	404a      	eors	r2, r1
 8001b5e:	615a      	str	r2, [r3, #20]
				break;
 8001b60:	e000      	b.n	8001b64 <light_toggle+0x90>
			default:
				break;
 8001b62:	46c0      	nop			; (mov r8, r8)

		}
}
 8001b64:	46c0      	nop			; (mov r8, r8)
 8001b66:	46bd      	mov	sp, r7
 8001b68:	b002      	add	sp, #8
 8001b6a:	bd80      	pop	{r7, pc}
 8001b6c:	08002390 	.word	0x08002390
 8001b70:	48000400 	.word	0x48000400

08001b74 <init_push_buttons>:
 *      Author: cal
 */

#include "PB.h"

void init_push_buttons(void) {
 8001b74:	b580      	push	{r7, lr}
 8001b76:	af00      	add	r7, sp, #0
  RCC->AHBENR |= RCC_AHBENR_GPIOAEN; //enable clock for push-buttons
 8001b78:	4b24      	ldr	r3, [pc, #144]	; (8001c0c <init_push_buttons+0x98>)
 8001b7a:	4a24      	ldr	r2, [pc, #144]	; (8001c0c <init_push_buttons+0x98>)
 8001b7c:	6952      	ldr	r2, [r2, #20]
 8001b7e:	2180      	movs	r1, #128	; 0x80
 8001b80:	0289      	lsls	r1, r1, #10
 8001b82:	430a      	orrs	r2, r1
 8001b84:	615a      	str	r2, [r3, #20]
  // set pins to inputs
  GPIOA->MODER &= ~GPIO_MODER_MODER0; //set PA0 to input
 8001b86:	2390      	movs	r3, #144	; 0x90
 8001b88:	05db      	lsls	r3, r3, #23
 8001b8a:	2290      	movs	r2, #144	; 0x90
 8001b8c:	05d2      	lsls	r2, r2, #23
 8001b8e:	6812      	ldr	r2, [r2, #0]
 8001b90:	2103      	movs	r1, #3
 8001b92:	438a      	bics	r2, r1
 8001b94:	601a      	str	r2, [r3, #0]
  GPIOA->MODER &= ~GPIO_MODER_MODER1; //set PA1 to input
 8001b96:	2390      	movs	r3, #144	; 0x90
 8001b98:	05db      	lsls	r3, r3, #23
 8001b9a:	2290      	movs	r2, #144	; 0x90
 8001b9c:	05d2      	lsls	r2, r2, #23
 8001b9e:	6812      	ldr	r2, [r2, #0]
 8001ba0:	210c      	movs	r1, #12
 8001ba2:	438a      	bics	r2, r1
 8001ba4:	601a      	str	r2, [r3, #0]
  GPIOA->MODER &= ~GPIO_MODER_MODER2; //set PA2 to input
 8001ba6:	2390      	movs	r3, #144	; 0x90
 8001ba8:	05db      	lsls	r3, r3, #23
 8001baa:	2290      	movs	r2, #144	; 0x90
 8001bac:	05d2      	lsls	r2, r2, #23
 8001bae:	6812      	ldr	r2, [r2, #0]
 8001bb0:	2130      	movs	r1, #48	; 0x30
 8001bb2:	438a      	bics	r2, r1
 8001bb4:	601a      	str	r2, [r3, #0]
  GPIOA->MODER &= ~GPIO_MODER_MODER3; //set PA3 to input
 8001bb6:	2390      	movs	r3, #144	; 0x90
 8001bb8:	05db      	lsls	r3, r3, #23
 8001bba:	2290      	movs	r2, #144	; 0x90
 8001bbc:	05d2      	lsls	r2, r2, #23
 8001bbe:	6812      	ldr	r2, [r2, #0]
 8001bc0:	21c0      	movs	r1, #192	; 0xc0
 8001bc2:	438a      	bics	r2, r1
 8001bc4:	601a      	str	r2, [r3, #0]
  // enable pull-down resistors
  GPIOA->PUPDR |= GPIO_PUPDR_PUPDR0_0; //enable pull up for PA0
 8001bc6:	2390      	movs	r3, #144	; 0x90
 8001bc8:	05db      	lsls	r3, r3, #23
 8001bca:	2290      	movs	r2, #144	; 0x90
 8001bcc:	05d2      	lsls	r2, r2, #23
 8001bce:	68d2      	ldr	r2, [r2, #12]
 8001bd0:	2101      	movs	r1, #1
 8001bd2:	430a      	orrs	r2, r1
 8001bd4:	60da      	str	r2, [r3, #12]
  GPIOA->PUPDR |= GPIO_PUPDR_PUPDR1_0; //enable pull up for PA1
 8001bd6:	2390      	movs	r3, #144	; 0x90
 8001bd8:	05db      	lsls	r3, r3, #23
 8001bda:	2290      	movs	r2, #144	; 0x90
 8001bdc:	05d2      	lsls	r2, r2, #23
 8001bde:	68d2      	ldr	r2, [r2, #12]
 8001be0:	2104      	movs	r1, #4
 8001be2:	430a      	orrs	r2, r1
 8001be4:	60da      	str	r2, [r3, #12]
  GPIOA->PUPDR |= GPIO_PUPDR_PUPDR2_0; //enable pull up for PA2
 8001be6:	2390      	movs	r3, #144	; 0x90
 8001be8:	05db      	lsls	r3, r3, #23
 8001bea:	2290      	movs	r2, #144	; 0x90
 8001bec:	05d2      	lsls	r2, r2, #23
 8001bee:	68d2      	ldr	r2, [r2, #12]
 8001bf0:	2110      	movs	r1, #16
 8001bf2:	430a      	orrs	r2, r1
 8001bf4:	60da      	str	r2, [r3, #12]
  GPIOA->PUPDR |= GPIO_PUPDR_PUPDR3_0; //enable pull up for PA3
 8001bf6:	2390      	movs	r3, #144	; 0x90
 8001bf8:	05db      	lsls	r3, r3, #23
 8001bfa:	2290      	movs	r2, #144	; 0x90
 8001bfc:	05d2      	lsls	r2, r2, #23
 8001bfe:	68d2      	ldr	r2, [r2, #12]
 8001c00:	2140      	movs	r1, #64	; 0x40
 8001c02:	430a      	orrs	r2, r1
 8001c04:	60da      	str	r2, [r3, #12]
}
 8001c06:	46c0      	nop			; (mov r8, r8)
 8001c08:	46bd      	mov	sp, r7
 8001c0a:	bd80      	pop	{r7, pc}
 8001c0c:	40021000 	.word	0x40021000

08001c10 <get_button_state>:

uint8_t get_button_state(uint8_t button)
{
 8001c10:	b580      	push	{r7, lr}
 8001c12:	b084      	sub	sp, #16
 8001c14:	af00      	add	r7, sp, #0
 8001c16:	0002      	movs	r2, r0
 8001c18:	1dfb      	adds	r3, r7, #7
 8001c1a:	701a      	strb	r2, [r3, #0]
	uint8_t val=0;
 8001c1c:	230f      	movs	r3, #15
 8001c1e:	18fb      	adds	r3, r7, r3
 8001c20:	2200      	movs	r2, #0
 8001c22:	701a      	strb	r2, [r3, #0]
	switch(button){
 8001c24:	1dfb      	adds	r3, r7, #7
 8001c26:	781b      	ldrb	r3, [r3, #0]
 8001c28:	2b01      	cmp	r3, #1
 8001c2a:	d013      	beq.n	8001c54 <get_button_state+0x44>
 8001c2c:	dc02      	bgt.n	8001c34 <get_button_state+0x24>
 8001c2e:	2b00      	cmp	r3, #0
 8001c30:	d005      	beq.n	8001c3e <get_button_state+0x2e>
		case 3:
			if((GPIOA->IDR & GPIO_IDR_3)==0)
				val=1;
			break;
		default:
			break;
 8001c32:	e037      	b.n	8001ca4 <get_button_state+0x94>
	switch(button){
 8001c34:	2b02      	cmp	r3, #2
 8001c36:	d018      	beq.n	8001c6a <get_button_state+0x5a>
 8001c38:	2b03      	cmp	r3, #3
 8001c3a:	d021      	beq.n	8001c80 <get_button_state+0x70>
			break;
 8001c3c:	e032      	b.n	8001ca4 <get_button_state+0x94>
			if((GPIOA->IDR & GPIO_IDR_0)==0)
 8001c3e:	2390      	movs	r3, #144	; 0x90
 8001c40:	05db      	lsls	r3, r3, #23
 8001c42:	691b      	ldr	r3, [r3, #16]
 8001c44:	2201      	movs	r2, #1
 8001c46:	4013      	ands	r3, r2
 8001c48:	d125      	bne.n	8001c96 <get_button_state+0x86>
				val=1;
 8001c4a:	230f      	movs	r3, #15
 8001c4c:	18fb      	adds	r3, r7, r3
 8001c4e:	2201      	movs	r2, #1
 8001c50:	701a      	strb	r2, [r3, #0]
			break;
 8001c52:	e020      	b.n	8001c96 <get_button_state+0x86>
			if((GPIOA->IDR & GPIO_IDR_1)==0)
 8001c54:	2390      	movs	r3, #144	; 0x90
 8001c56:	05db      	lsls	r3, r3, #23
 8001c58:	691b      	ldr	r3, [r3, #16]
 8001c5a:	2202      	movs	r2, #2
 8001c5c:	4013      	ands	r3, r2
 8001c5e:	d11c      	bne.n	8001c9a <get_button_state+0x8a>
				val=1;
 8001c60:	230f      	movs	r3, #15
 8001c62:	18fb      	adds	r3, r7, r3
 8001c64:	2201      	movs	r2, #1
 8001c66:	701a      	strb	r2, [r3, #0]
			break;
 8001c68:	e017      	b.n	8001c9a <get_button_state+0x8a>
			if((GPIOA->IDR & GPIO_IDR_2)==0)
 8001c6a:	2390      	movs	r3, #144	; 0x90
 8001c6c:	05db      	lsls	r3, r3, #23
 8001c6e:	691b      	ldr	r3, [r3, #16]
 8001c70:	2204      	movs	r2, #4
 8001c72:	4013      	ands	r3, r2
 8001c74:	d113      	bne.n	8001c9e <get_button_state+0x8e>
				val=1;
 8001c76:	230f      	movs	r3, #15
 8001c78:	18fb      	adds	r3, r7, r3
 8001c7a:	2201      	movs	r2, #1
 8001c7c:	701a      	strb	r2, [r3, #0]
			break;
 8001c7e:	e00e      	b.n	8001c9e <get_button_state+0x8e>
			if((GPIOA->IDR & GPIO_IDR_3)==0)
 8001c80:	2390      	movs	r3, #144	; 0x90
 8001c82:	05db      	lsls	r3, r3, #23
 8001c84:	691b      	ldr	r3, [r3, #16]
 8001c86:	2208      	movs	r2, #8
 8001c88:	4013      	ands	r3, r2
 8001c8a:	d10a      	bne.n	8001ca2 <get_button_state+0x92>
				val=1;
 8001c8c:	230f      	movs	r3, #15
 8001c8e:	18fb      	adds	r3, r7, r3
 8001c90:	2201      	movs	r2, #1
 8001c92:	701a      	strb	r2, [r3, #0]
			break;
 8001c94:	e005      	b.n	8001ca2 <get_button_state+0x92>
			break;
 8001c96:	46c0      	nop			; (mov r8, r8)
 8001c98:	e004      	b.n	8001ca4 <get_button_state+0x94>
			break;
 8001c9a:	46c0      	nop			; (mov r8, r8)
 8001c9c:	e002      	b.n	8001ca4 <get_button_state+0x94>
			break;
 8001c9e:	46c0      	nop			; (mov r8, r8)
 8001ca0:	e000      	b.n	8001ca4 <get_button_state+0x94>
			break;
 8001ca2:	46c0      	nop			; (mov r8, r8)
	}
	return val;
 8001ca4:	230f      	movs	r3, #15
 8001ca6:	18fb      	adds	r3, r7, r3
 8001ca8:	781b      	ldrb	r3, [r3, #0]
}
 8001caa:	0018      	movs	r0, r3
 8001cac:	46bd      	mov	sp, r7
 8001cae:	b004      	add	sp, #16
 8001cb0:	bd80      	pop	{r7, pc}

08001cb2 <lcd_string>:
static void lcd_put (uint8_t character, enum TypeOfCharacter ch_type);
static void lcd_write4bits(uint8_t value);

//============================================================================

void lcd_string(uint8_t *string_to_print) {
 8001cb2:	b580      	push	{r7, lr}
 8001cb4:	b084      	sub	sp, #16
 8001cb6:	af00      	add	r7, sp, #0
 8001cb8:	6078      	str	r0, [r7, #4]
  uint32_t count=0;
 8001cba:	2300      	movs	r3, #0
 8001cbc:	60fb      	str	r3, [r7, #12]
  while (string_to_print[count] != 0) {
 8001cbe:	e00d      	b.n	8001cdc <lcd_string+0x2a>
    lcd_put (string_to_print[count], TEXT);
 8001cc0:	687a      	ldr	r2, [r7, #4]
 8001cc2:	68fb      	ldr	r3, [r7, #12]
 8001cc4:	18d3      	adds	r3, r2, r3
 8001cc6:	781b      	ldrb	r3, [r3, #0]
 8001cc8:	2101      	movs	r1, #1
 8001cca:	0018      	movs	r0, r3
 8001ccc:	f000 f8a2 	bl	8001e14 <lcd_put>
    delay(43); // a DRAM write requires at least 43 us execution time
 8001cd0:	202b      	movs	r0, #43	; 0x2b
 8001cd2:	f000 f937 	bl	8001f44 <delay>
    count++;
 8001cd6:	68fb      	ldr	r3, [r7, #12]
 8001cd8:	3301      	adds	r3, #1
 8001cda:	60fb      	str	r3, [r7, #12]
  while (string_to_print[count] != 0) {
 8001cdc:	687a      	ldr	r2, [r7, #4]
 8001cde:	68fb      	ldr	r3, [r7, #12]
 8001ce0:	18d3      	adds	r3, r2, r3
 8001ce2:	781b      	ldrb	r3, [r3, #0]
 8001ce4:	2b00      	cmp	r3, #0
 8001ce6:	d1eb      	bne.n	8001cc0 <lcd_string+0xe>
  }
}
 8001ce8:	46c0      	nop			; (mov r8, r8)
 8001cea:	46bd      	mov	sp, r7
 8001cec:	b004      	add	sp, #16
 8001cee:	bd80      	pop	{r7, pc}

08001cf0 <lcd_init>:
  lcd_string(line2);
}

//============================================================================

void lcd_init () {
 8001cf0:	b580      	push	{r7, lr}
 8001cf2:	af00      	add	r7, sp, #0
  /*This function sets up the port lines for the LCD and initializes
  the LCD module for use.*/
  // set the relevant pins to outputs
  RCC->AHBENR |= RCC_AHBENR_GPIOCEN;
 8001cf4:	4b37      	ldr	r3, [pc, #220]	; (8001dd4 <lcd_init+0xe4>)
 8001cf6:	4a37      	ldr	r2, [pc, #220]	; (8001dd4 <lcd_init+0xe4>)
 8001cf8:	6952      	ldr	r2, [r2, #20]
 8001cfa:	2180      	movs	r1, #128	; 0x80
 8001cfc:	0309      	lsls	r1, r1, #12
 8001cfe:	430a      	orrs	r2, r1
 8001d00:	615a      	str	r2, [r3, #20]
  RCC->AHBENR |= RCC_AHBENR_GPIOBEN;
 8001d02:	4b34      	ldr	r3, [pc, #208]	; (8001dd4 <lcd_init+0xe4>)
 8001d04:	4a33      	ldr	r2, [pc, #204]	; (8001dd4 <lcd_init+0xe4>)
 8001d06:	6952      	ldr	r2, [r2, #20]
 8001d08:	2180      	movs	r1, #128	; 0x80
 8001d0a:	02c9      	lsls	r1, r1, #11
 8001d0c:	430a      	orrs	r2, r1
 8001d0e:	615a      	str	r2, [r3, #20]
  RCC->AHBENR |= RCC_AHBENR_GPIOAEN;
 8001d10:	4b30      	ldr	r3, [pc, #192]	; (8001dd4 <lcd_init+0xe4>)
 8001d12:	4a30      	ldr	r2, [pc, #192]	; (8001dd4 <lcd_init+0xe4>)
 8001d14:	6952      	ldr	r2, [r2, #20]
 8001d16:	2180      	movs	r1, #128	; 0x80
 8001d18:	0289      	lsls	r1, r1, #10
 8001d1a:	430a      	orrs	r2, r1
 8001d1c:	615a      	str	r2, [r3, #20]
  GPIOC->MODER |= GPIO_MODER_MODER14_0;
 8001d1e:	4b2e      	ldr	r3, [pc, #184]	; (8001dd8 <lcd_init+0xe8>)
 8001d20:	4a2d      	ldr	r2, [pc, #180]	; (8001dd8 <lcd_init+0xe8>)
 8001d22:	6812      	ldr	r2, [r2, #0]
 8001d24:	2180      	movs	r1, #128	; 0x80
 8001d26:	0549      	lsls	r1, r1, #21
 8001d28:	430a      	orrs	r2, r1
 8001d2a:	601a      	str	r2, [r3, #0]
  GPIOC->MODER |= GPIO_MODER_MODER15_0;
 8001d2c:	4b2a      	ldr	r3, [pc, #168]	; (8001dd8 <lcd_init+0xe8>)
 8001d2e:	4a2a      	ldr	r2, [pc, #168]	; (8001dd8 <lcd_init+0xe8>)
 8001d30:	6812      	ldr	r2, [r2, #0]
 8001d32:	2180      	movs	r1, #128	; 0x80
 8001d34:	05c9      	lsls	r1, r1, #23
 8001d36:	430a      	orrs	r2, r1
 8001d38:	601a      	str	r2, [r3, #0]
  GPIOB->MODER |= GPIO_MODER_MODER8_0;
 8001d3a:	4b28      	ldr	r3, [pc, #160]	; (8001ddc <lcd_init+0xec>)
 8001d3c:	4a27      	ldr	r2, [pc, #156]	; (8001ddc <lcd_init+0xec>)
 8001d3e:	6812      	ldr	r2, [r2, #0]
 8001d40:	2180      	movs	r1, #128	; 0x80
 8001d42:	0249      	lsls	r1, r1, #9
 8001d44:	430a      	orrs	r2, r1
 8001d46:	601a      	str	r2, [r3, #0]
  GPIOB->MODER |= GPIO_MODER_MODER9_0;
 8001d48:	4b24      	ldr	r3, [pc, #144]	; (8001ddc <lcd_init+0xec>)
 8001d4a:	4a24      	ldr	r2, [pc, #144]	; (8001ddc <lcd_init+0xec>)
 8001d4c:	6812      	ldr	r2, [r2, #0]
 8001d4e:	2180      	movs	r1, #128	; 0x80
 8001d50:	02c9      	lsls	r1, r1, #11
 8001d52:	430a      	orrs	r2, r1
 8001d54:	601a      	str	r2, [r3, #0]
  GPIOA->MODER |= GPIO_MODER_MODER12_0;
 8001d56:	2390      	movs	r3, #144	; 0x90
 8001d58:	05db      	lsls	r3, r3, #23
 8001d5a:	2290      	movs	r2, #144	; 0x90
 8001d5c:	05d2      	lsls	r2, r2, #23
 8001d5e:	6812      	ldr	r2, [r2, #0]
 8001d60:	2180      	movs	r1, #128	; 0x80
 8001d62:	0449      	lsls	r1, r1, #17
 8001d64:	430a      	orrs	r2, r1
 8001d66:	601a      	str	r2, [r3, #0]
  GPIOA->MODER |= GPIO_MODER_MODER15_0;
 8001d68:	2390      	movs	r3, #144	; 0x90
 8001d6a:	05db      	lsls	r3, r3, #23
 8001d6c:	2290      	movs	r2, #144	; 0x90
 8001d6e:	05d2      	lsls	r2, r2, #23
 8001d70:	6812      	ldr	r2, [r2, #0]
 8001d72:	2180      	movs	r1, #128	; 0x80
 8001d74:	05c9      	lsls	r1, r1, #23
 8001d76:	430a      	orrs	r2, r1
 8001d78:	601a      	str	r2, [r3, #0]

  delay(30000); //allow the LCD 30 ms power up time
 8001d7a:	4b19      	ldr	r3, [pc, #100]	; (8001de0 <lcd_init+0xf0>)
 8001d7c:	0018      	movs	r0, r3
 8001d7e:	f000 f8e1 	bl	8001f44 <delay>
  // in case in 2nd nibble of 4 bit tansfer, this goes to 1st nibble
  // if byte in 8-bit mode, keeps in 8-bit mode
  lcd_write4bits(0x03);
 8001d82:	2003      	movs	r0, #3
 8001d84:	f000 f878 	bl	8001e78 <lcd_write4bits>
  delay(4100);
 8001d88:	4b16      	ldr	r3, [pc, #88]	; (8001de4 <lcd_init+0xf4>)
 8001d8a:	0018      	movs	r0, r3
 8001d8c:	f000 f8da 	bl	8001f44 <delay>
  lcd_write4bits(0x03);  // garanteed to be byte of 8-bit data for first byte of 4-bit.
 8001d90:	2003      	movs	r0, #3
 8001d92:	f000 f871 	bl	8001e78 <lcd_write4bits>
  delay(39);
 8001d96:	2027      	movs	r0, #39	; 0x27
 8001d98:	f000 f8d4 	bl	8001f44 <delay>
  lcd_write4bits(0x03); // necessary in case this is the 2nd nibble of 4-bit transfer.
 8001d9c:	2003      	movs	r0, #3
 8001d9e:	f000 f86b 	bl	8001e78 <lcd_write4bits>
  delay(39);
 8001da2:	2027      	movs	r0, #39	; 0x27
 8001da4:	f000 f8ce 	bl	8001f44 <delay>
  // switch to 4-bit. This will latch in a byte as it's garanteed to now be in 8-bit
  lcd_write4bits(0x02);
 8001da8:	2002      	movs	r0, #2
 8001daa:	f000 f865 	bl	8001e78 <lcd_write4bits>
  delay(39);
 8001dae:	2027      	movs	r0, #39	; 0x27
 8001db0:	f000 f8c8 	bl	8001f44 <delay>
  lcd_command(LCD_FOUR_BIT_TWO_LINE_MODE); //0x28
 8001db4:	2028      	movs	r0, #40	; 0x28
 8001db6:	f000 f817 	bl	8001de8 <lcd_command>
  lcd_command(LCD_DISPLAY_OFF); // 0x08
 8001dba:	2008      	movs	r0, #8
 8001dbc:	f000 f814 	bl	8001de8 <lcd_command>
  lcd_command(LCD_CLEAR_DISPLAY); // 0x01
 8001dc0:	2001      	movs	r0, #1
 8001dc2:	f000 f811 	bl	8001de8 <lcd_command>
  lcd_command(LCD_DISPLAY_ON); // 0x0C
 8001dc6:	200c      	movs	r0, #12
 8001dc8:	f000 f80e 	bl	8001de8 <lcd_command>
}
 8001dcc:	46c0      	nop			; (mov r8, r8)
 8001dce:	46bd      	mov	sp, r7
 8001dd0:	bd80      	pop	{r7, pc}
 8001dd2:	46c0      	nop			; (mov r8, r8)
 8001dd4:	40021000 	.word	0x40021000
 8001dd8:	48000800 	.word	0x48000800
 8001ddc:	48000400 	.word	0x48000400
 8001de0:	00007530 	.word	0x00007530
 8001de4:	00001004 	.word	0x00001004

08001de8 <lcd_command>:

//============================================================================

void lcd_command (enum LcdCommand command) {
 8001de8:	b580      	push	{r7, lr}
 8001dea:	b082      	sub	sp, #8
 8001dec:	af00      	add	r7, sp, #0
 8001dee:	0002      	movs	r2, r0
 8001df0:	1dfb      	adds	r3, r7, #7
 8001df2:	701a      	strb	r2, [r3, #0]
  //This function sends a command to the LCD.
  //Care is taken not to interfere with the other lines on the port.
  lcd_put((uint8_t)command, COMMAND);
 8001df4:	1dfb      	adds	r3, r7, #7
 8001df6:	781b      	ldrb	r3, [r3, #0]
 8001df8:	2100      	movs	r1, #0
 8001dfa:	0018      	movs	r0, r3
 8001dfc:	f000 f80a 	bl	8001e14 <lcd_put>
  delay(1530); // 1.53 ms is the maximum delay we should need for any command.
 8001e00:	4b03      	ldr	r3, [pc, #12]	; (8001e10 <lcd_command+0x28>)
 8001e02:	0018      	movs	r0, r3
 8001e04:	f000 f89e 	bl	8001f44 <delay>
  // TODO: fix the above to have variable lengths as required by different commands.
}
 8001e08:	46c0      	nop			; (mov r8, r8)
 8001e0a:	46bd      	mov	sp, r7
 8001e0c:	b002      	add	sp, #8
 8001e0e:	bd80      	pop	{r7, pc}
 8001e10:	000005fa 	.word	0x000005fa

08001e14 <lcd_put>:

//============================================================================

static void lcd_put (uint8_t character, enum TypeOfCharacter ch_type) {
 8001e14:	b580      	push	{r7, lr}
 8001e16:	b082      	sub	sp, #8
 8001e18:	af00      	add	r7, sp, #0
 8001e1a:	0002      	movs	r2, r0
 8001e1c:	1dfb      	adds	r3, r7, #7
 8001e1e:	701a      	strb	r2, [r3, #0]
 8001e20:	1dbb      	adds	r3, r7, #6
 8001e22:	1c0a      	adds	r2, r1, #0
 8001e24:	701a      	strb	r2, [r3, #0]
    //Puts a single character on the LCD at the next position on the screen.
    //The character to be printed is in the input parameter. For numbers, letters
    //and other common characters the ASCII code will produce correct display.
    //Refer to the Hitachi HD44780 datasheet for full character set information.
    if (ch_type == TEXT) {
 8001e26:	1dbb      	adds	r3, r7, #6
 8001e28:	781b      	ldrb	r3, [r3, #0]
 8001e2a:	2b01      	cmp	r3, #1
 8001e2c:	d107      	bne.n	8001e3e <lcd_put+0x2a>
        GPIOC->BSRR |= GPIO_BSRR_BS_14;// pull RS (PC14) high
 8001e2e:	4b11      	ldr	r3, [pc, #68]	; (8001e74 <lcd_put+0x60>)
 8001e30:	4a10      	ldr	r2, [pc, #64]	; (8001e74 <lcd_put+0x60>)
 8001e32:	6992      	ldr	r2, [r2, #24]
 8001e34:	2180      	movs	r1, #128	; 0x80
 8001e36:	01c9      	lsls	r1, r1, #7
 8001e38:	430a      	orrs	r2, r1
 8001e3a:	619a      	str	r2, [r3, #24]
 8001e3c:	e00a      	b.n	8001e54 <lcd_put+0x40>
    } else if (ch_type == COMMAND) {
 8001e3e:	1dbb      	adds	r3, r7, #6
 8001e40:	781b      	ldrb	r3, [r3, #0]
 8001e42:	2b00      	cmp	r3, #0
 8001e44:	d106      	bne.n	8001e54 <lcd_put+0x40>
        GPIOC->BSRR |= GPIO_BSRR_BR_14;// pull RS (PC14) low
 8001e46:	4b0b      	ldr	r3, [pc, #44]	; (8001e74 <lcd_put+0x60>)
 8001e48:	4a0a      	ldr	r2, [pc, #40]	; (8001e74 <lcd_put+0x60>)
 8001e4a:	6992      	ldr	r2, [r2, #24]
 8001e4c:	2180      	movs	r1, #128	; 0x80
 8001e4e:	05c9      	lsls	r1, r1, #23
 8001e50:	430a      	orrs	r2, r1
 8001e52:	619a      	str	r2, [r3, #24]
    }
    // write upper nibble
    lcd_write4bits(character >> 4);
 8001e54:	1dfb      	adds	r3, r7, #7
 8001e56:	781b      	ldrb	r3, [r3, #0]
 8001e58:	091b      	lsrs	r3, r3, #4
 8001e5a:	b2db      	uxtb	r3, r3
 8001e5c:	0018      	movs	r0, r3
 8001e5e:	f000 f80b 	bl	8001e78 <lcd_write4bits>
    // write lower nibble
    lcd_write4bits(character);
 8001e62:	1dfb      	adds	r3, r7, #7
 8001e64:	781b      	ldrb	r3, [r3, #0]
 8001e66:	0018      	movs	r0, r3
 8001e68:	f000 f806 	bl	8001e78 <lcd_write4bits>
}
 8001e6c:	46c0      	nop			; (mov r8, r8)
 8001e6e:	46bd      	mov	sp, r7
 8001e70:	b002      	add	sp, #8
 8001e72:	bd80      	pop	{r7, pc}
 8001e74:	48000800 	.word	0x48000800

08001e78 <lcd_write4bits>:

// This function outputs the lower 4 bits onto the data lines
static void lcd_write4bits(uint8_t character) {
 8001e78:	b580      	push	{r7, lr}
 8001e7a:	b082      	sub	sp, #8
 8001e7c:	af00      	add	r7, sp, #0
 8001e7e:	0002      	movs	r2, r0
 8001e80:	1dfb      	adds	r3, r7, #7
 8001e82:	701a      	strb	r2, [r3, #0]
  // lower nibble to data lines
  if ((character & 0x08) != 0) {
 8001e84:	1dfb      	adds	r3, r7, #7
 8001e86:	781b      	ldrb	r3, [r3, #0]
 8001e88:	2208      	movs	r2, #8
 8001e8a:	4013      	ands	r3, r2
 8001e8c:	d009      	beq.n	8001ea2 <lcd_write4bits+0x2a>
    GPIOA->BSRR |= GPIO_BSRR_BS_15;
 8001e8e:	2390      	movs	r3, #144	; 0x90
 8001e90:	05db      	lsls	r3, r3, #23
 8001e92:	2290      	movs	r2, #144	; 0x90
 8001e94:	05d2      	lsls	r2, r2, #23
 8001e96:	6992      	ldr	r2, [r2, #24]
 8001e98:	2180      	movs	r1, #128	; 0x80
 8001e9a:	0209      	lsls	r1, r1, #8
 8001e9c:	430a      	orrs	r2, r1
 8001e9e:	619a      	str	r2, [r3, #24]
 8001ea0:	e008      	b.n	8001eb4 <lcd_write4bits+0x3c>
  } else {
    GPIOA->BSRR |= GPIO_BSRR_BR_15;
 8001ea2:	2390      	movs	r3, #144	; 0x90
 8001ea4:	05db      	lsls	r3, r3, #23
 8001ea6:	2290      	movs	r2, #144	; 0x90
 8001ea8:	05d2      	lsls	r2, r2, #23
 8001eaa:	6992      	ldr	r2, [r2, #24]
 8001eac:	2180      	movs	r1, #128	; 0x80
 8001eae:	0609      	lsls	r1, r1, #24
 8001eb0:	430a      	orrs	r2, r1
 8001eb2:	619a      	str	r2, [r3, #24]
  }
  if ((character & 0x04) != 0) {
 8001eb4:	1dfb      	adds	r3, r7, #7
 8001eb6:	781b      	ldrb	r3, [r3, #0]
 8001eb8:	2204      	movs	r2, #4
 8001eba:	4013      	ands	r3, r2
 8001ebc:	d009      	beq.n	8001ed2 <lcd_write4bits+0x5a>
    GPIOA->BSRR |= GPIO_BSRR_BS_12;
 8001ebe:	2390      	movs	r3, #144	; 0x90
 8001ec0:	05db      	lsls	r3, r3, #23
 8001ec2:	2290      	movs	r2, #144	; 0x90
 8001ec4:	05d2      	lsls	r2, r2, #23
 8001ec6:	6992      	ldr	r2, [r2, #24]
 8001ec8:	2180      	movs	r1, #128	; 0x80
 8001eca:	0149      	lsls	r1, r1, #5
 8001ecc:	430a      	orrs	r2, r1
 8001ece:	619a      	str	r2, [r3, #24]
 8001ed0:	e008      	b.n	8001ee4 <lcd_write4bits+0x6c>
  } else {
    GPIOA->BSRR |= GPIO_BSRR_BR_12;
 8001ed2:	2390      	movs	r3, #144	; 0x90
 8001ed4:	05db      	lsls	r3, r3, #23
 8001ed6:	2290      	movs	r2, #144	; 0x90
 8001ed8:	05d2      	lsls	r2, r2, #23
 8001eda:	6992      	ldr	r2, [r2, #24]
 8001edc:	2180      	movs	r1, #128	; 0x80
 8001ede:	0549      	lsls	r1, r1, #21
 8001ee0:	430a      	orrs	r2, r1
 8001ee2:	619a      	str	r2, [r3, #24]
  }
  if ((character & 0x02) != 0) {
 8001ee4:	1dfb      	adds	r3, r7, #7
 8001ee6:	781b      	ldrb	r3, [r3, #0]
 8001ee8:	2202      	movs	r2, #2
 8001eea:	4013      	ands	r3, r2
 8001eec:	d007      	beq.n	8001efe <lcd_write4bits+0x86>
    GPIOB->BSRR |= GPIO_BSRR_BS_9;
 8001eee:	4b14      	ldr	r3, [pc, #80]	; (8001f40 <lcd_write4bits+0xc8>)
 8001ef0:	4a13      	ldr	r2, [pc, #76]	; (8001f40 <lcd_write4bits+0xc8>)
 8001ef2:	6992      	ldr	r2, [r2, #24]
 8001ef4:	2180      	movs	r1, #128	; 0x80
 8001ef6:	0089      	lsls	r1, r1, #2
 8001ef8:	430a      	orrs	r2, r1
 8001efa:	619a      	str	r2, [r3, #24]
 8001efc:	e006      	b.n	8001f0c <lcd_write4bits+0x94>
  } else {
    GPIOB->BSRR |= GPIO_BSRR_BR_9;
 8001efe:	4b10      	ldr	r3, [pc, #64]	; (8001f40 <lcd_write4bits+0xc8>)
 8001f00:	4a0f      	ldr	r2, [pc, #60]	; (8001f40 <lcd_write4bits+0xc8>)
 8001f02:	6992      	ldr	r2, [r2, #24]
 8001f04:	2180      	movs	r1, #128	; 0x80
 8001f06:	0489      	lsls	r1, r1, #18
 8001f08:	430a      	orrs	r2, r1
 8001f0a:	619a      	str	r2, [r3, #24]
  }
  if ((character & 0x01) != 0) {
 8001f0c:	1dfb      	adds	r3, r7, #7
 8001f0e:	781b      	ldrb	r3, [r3, #0]
 8001f10:	2201      	movs	r2, #1
 8001f12:	4013      	ands	r3, r2
 8001f14:	d007      	beq.n	8001f26 <lcd_write4bits+0xae>
    GPIOB->BSRR |= GPIO_BSRR_BS_8;
 8001f16:	4b0a      	ldr	r3, [pc, #40]	; (8001f40 <lcd_write4bits+0xc8>)
 8001f18:	4a09      	ldr	r2, [pc, #36]	; (8001f40 <lcd_write4bits+0xc8>)
 8001f1a:	6992      	ldr	r2, [r2, #24]
 8001f1c:	2180      	movs	r1, #128	; 0x80
 8001f1e:	0049      	lsls	r1, r1, #1
 8001f20:	430a      	orrs	r2, r1
 8001f22:	619a      	str	r2, [r3, #24]
 8001f24:	e006      	b.n	8001f34 <lcd_write4bits+0xbc>
  } else {
    GPIOB->BSRR |= GPIO_BSRR_BR_8;
 8001f26:	4b06      	ldr	r3, [pc, #24]	; (8001f40 <lcd_write4bits+0xc8>)
 8001f28:	4a05      	ldr	r2, [pc, #20]	; (8001f40 <lcd_write4bits+0xc8>)
 8001f2a:	6992      	ldr	r2, [r2, #24]
 8001f2c:	2180      	movs	r1, #128	; 0x80
 8001f2e:	0449      	lsls	r1, r1, #17
 8001f30:	430a      	orrs	r2, r1
 8001f32:	619a      	str	r2, [r3, #24]
  }
  pulse_strobe ();
 8001f34:	f000 f820 	bl	8001f78 <pulse_strobe>
}
 8001f38:	46c0      	nop			; (mov r8, r8)
 8001f3a:	46bd      	mov	sp, r7
 8001f3c:	b002      	add	sp, #8
 8001f3e:	bd80      	pop	{r7, pc}
 8001f40:	48000400 	.word	0x48000400

08001f44 <delay>:

//============================================================================


static void delay(uint32_t microseconds) {
 8001f44:	b580      	push	{r7, lr}
 8001f46:	b084      	sub	sp, #16
 8001f48:	af00      	add	r7, sp, #0
 8001f4a:	6078      	str	r0, [r7, #4]
  /* Hangs for specified number of microseconds. */
  volatile uint32_t counter = 0;
 8001f4c:	2300      	movs	r3, #0
 8001f4e:	60fb      	str	r3, [r7, #12]
  microseconds *= 3;
 8001f50:	687a      	ldr	r2, [r7, #4]
 8001f52:	0013      	movs	r3, r2
 8001f54:	005b      	lsls	r3, r3, #1
 8001f56:	189b      	adds	r3, r3, r2
 8001f58:	607b      	str	r3, [r7, #4]
  for(; counter<microseconds; counter++) {
 8001f5a:	e004      	b.n	8001f66 <delay+0x22>
    __asm("nop");
 8001f5c:	46c0      	nop			; (mov r8, r8)
    __asm("nop");
 8001f5e:	46c0      	nop			; (mov r8, r8)
  for(; counter<microseconds; counter++) {
 8001f60:	68fb      	ldr	r3, [r7, #12]
 8001f62:	3301      	adds	r3, #1
 8001f64:	60fb      	str	r3, [r7, #12]
 8001f66:	68fa      	ldr	r2, [r7, #12]
 8001f68:	687b      	ldr	r3, [r7, #4]
 8001f6a:	429a      	cmp	r2, r3
 8001f6c:	d3f6      	bcc.n	8001f5c <delay+0x18>
  }
}
 8001f6e:	46c0      	nop			; (mov r8, r8)
 8001f70:	46bd      	mov	sp, r7
 8001f72:	b004      	add	sp, #16
 8001f74:	bd80      	pop	{r7, pc}
	...

08001f78 <pulse_strobe>:

static void pulse_strobe (void) {
 8001f78:	b580      	push	{r7, lr}
 8001f7a:	af00      	add	r7, sp, #0
  //Pulse the strobe line of the LCD to indicate that data is ready.
  delay(1);
 8001f7c:	2001      	movs	r0, #1
 8001f7e:	f7ff ffe1 	bl	8001f44 <delay>
  GPIOC->BSRR |= GPIO_BSRR_BS_15;// pull E (PC15) high
 8001f82:	4b0b      	ldr	r3, [pc, #44]	; (8001fb0 <pulse_strobe+0x38>)
 8001f84:	4a0a      	ldr	r2, [pc, #40]	; (8001fb0 <pulse_strobe+0x38>)
 8001f86:	6992      	ldr	r2, [r2, #24]
 8001f88:	2180      	movs	r1, #128	; 0x80
 8001f8a:	0209      	lsls	r1, r1, #8
 8001f8c:	430a      	orrs	r2, r1
 8001f8e:	619a      	str	r2, [r3, #24]
  delay(1);
 8001f90:	2001      	movs	r0, #1
 8001f92:	f7ff ffd7 	bl	8001f44 <delay>
  GPIOC->BSRR |= GPIO_BSRR_BR_15;// pull E (PC15) low
 8001f96:	4b06      	ldr	r3, [pc, #24]	; (8001fb0 <pulse_strobe+0x38>)
 8001f98:	4a05      	ldr	r2, [pc, #20]	; (8001fb0 <pulse_strobe+0x38>)
 8001f9a:	6992      	ldr	r2, [r2, #24]
 8001f9c:	2180      	movs	r1, #128	; 0x80
 8001f9e:	0609      	lsls	r1, r1, #24
 8001fa0:	430a      	orrs	r2, r1
 8001fa2:	619a      	str	r2, [r3, #24]
  delay(1);
 8001fa4:	2001      	movs	r0, #1
 8001fa6:	f7ff ffcd 	bl	8001f44 <delay>
}
 8001faa:	46c0      	nop			; (mov r8, r8)
 8001fac:	46bd      	mov	sp, r7
 8001fae:	bd80      	pop	{r7, pc}
 8001fb0:	48000800 	.word	0x48000800

08001fb4 <main>:
void delay(void);

extern void lcd_init (void);


void main(void) {
 8001fb4:	b580      	push	{r7, lr}
 8001fb6:	b082      	sub	sp, #8
 8001fb8:	af00      	add	r7, sp, #0
  int i =0;
 8001fba:	2300      	movs	r3, #0
 8001fbc:	607b      	str	r3, [r7, #4]
  lcd_init(); // set up LCD lines and send initialisation commands
 8001fbe:	f7ff fe97 	bl	8001cf0 <lcd_init>
  lcd_command(LCD_CLEAR_DISPLAY);
 8001fc2:	2001      	movs	r0, #1
 8001fc4:	f7ff ff10 	bl	8001de8 <lcd_command>
  lcd_string("LED desk lights");
 8001fc8:	4b35      	ldr	r3, [pc, #212]	; (80020a0 <main+0xec>)
 8001fca:	0018      	movs	r0, r3
 8001fcc:	f7ff fe71 	bl	8001cb2 <lcd_string>
  lcd_command(LCD_GOTO_LINE_2); // go to lower line
 8001fd0:	20c0      	movs	r0, #192	; 0xc0
 8001fd2:	f7ff ff09 	bl	8001de8 <lcd_command>
  lcd_string("V1.0");
 8001fd6:	4b33      	ldr	r3, [pc, #204]	; (80020a4 <main+0xf0>)
 8001fd8:	0018      	movs	r0, r3
 8001fda:	f7ff fe6a 	bl	8001cb2 <lcd_string>


  init_LEDs();
 8001fde:	f7ff fcc9 	bl	8001974 <init_LEDs>
  init_push_buttons();
 8001fe2:	f7ff fdc7 	bl	8001b74 <init_push_buttons>
  init_ADC();
 8001fe6:	f7ff fc65 	bl	80018b4 <init_ADC>
  // set LEDs to outputs
  for(;;)
  {
	  i=i+1;
 8001fea:	687b      	ldr	r3, [r7, #4]
 8001fec:	3301      	adds	r3, #1
 8001fee:	607b      	str	r3, [r7, #4]
	  delay();
 8001ff0:	f000 f8ce 	bl	8002190 <delay>
	  if(i>200)
 8001ff4:	687b      	ldr	r3, [r7, #4]
 8001ff6:	2bc8      	cmp	r3, #200	; 0xc8
 8001ff8:	dd04      	ble.n	8002004 <main+0x50>
	  {
		  light_toggle(beer);
 8001ffa:	2003      	movs	r0, #3
 8001ffc:	f7ff fd6a 	bl	8001ad4 <light_toggle>
		  i=0;
 8002000:	2300      	movs	r3, #0
 8002002:	607b      	str	r3, [r7, #4]
	  }



	  mode=get_mode(mode);
 8002004:	4b28      	ldr	r3, [pc, #160]	; (80020a8 <main+0xf4>)
 8002006:	781b      	ldrb	r3, [r3, #0]
 8002008:	0018      	movs	r0, r3
 800200a:	f000 f84f 	bl	80020ac <get_mode>
 800200e:	0003      	movs	r3, r0
 8002010:	001a      	movs	r2, r3
 8002012:	4b25      	ldr	r3, [pc, #148]	; (80020a8 <main+0xf4>)
 8002014:	701a      	strb	r2, [r3, #0]
	  switch(mode)
 8002016:	4b24      	ldr	r3, [pc, #144]	; (80020a8 <main+0xf4>)
 8002018:	781b      	ldrb	r3, [r3, #0]
 800201a:	2b01      	cmp	r3, #1
 800201c:	d012      	beq.n	8002044 <main+0x90>
 800201e:	dc02      	bgt.n	8002026 <main+0x72>
 8002020:	2b00      	cmp	r3, #0
 8002022:	d005      	beq.n	8002030 <main+0x7c>
		  light_off(white);
		  light_off(red);
		  light_off(blue);
		  break;
	  default:
		  break;
 8002024:	e03b      	b.n	800209e <main+0xea>
	  switch(mode)
 8002026:	2b02      	cmp	r3, #2
 8002028:	d016      	beq.n	8002058 <main+0xa4>
 800202a:	2b03      	cmp	r3, #3
 800202c:	d02d      	beq.n	800208a <main+0xd6>
		  break;
 800202e:	e036      	b.n	800209e <main+0xea>
		  light_on(white);
 8002030:	2002      	movs	r0, #2
 8002032:	f7ff fcaf 	bl	8001994 <light_on>
		  light_off(red);
 8002036:	2000      	movs	r0, #0
 8002038:	f7ff fcfc 	bl	8001a34 <light_off>
		  light_off(blue);
 800203c:	2001      	movs	r0, #1
 800203e:	f7ff fcf9 	bl	8001a34 <light_off>
		  break;
 8002042:	e02c      	b.n	800209e <main+0xea>
		  light_on(white);
 8002044:	2002      	movs	r0, #2
 8002046:	f7ff fca5 	bl	8001994 <light_on>
		  light_on(red);
 800204a:	2000      	movs	r0, #0
 800204c:	f7ff fca2 	bl	8001994 <light_on>
		  light_on(blue);
 8002050:	2001      	movs	r0, #1
 8002052:	f7ff fc9f 	bl	8001994 <light_on>
		  break;
 8002056:	e022      	b.n	800209e <main+0xea>
		  light_on(white);
 8002058:	2002      	movs	r0, #2
 800205a:	f7ff fc9b 	bl	8001994 <light_on>
		  light_on(red);
 800205e:	2000      	movs	r0, #0
 8002060:	f7ff fc98 	bl	8001994 <light_on>
		  light_on(blue);
 8002064:	2001      	movs	r0, #1
 8002066:	f7ff fc95 	bl	8001994 <light_on>
		  i=0;
 800206a:	2300      	movs	r3, #0
 800206c:	607b      	str	r3, [r7, #4]
		  strobe_delay();
 800206e:	f000 f85b 	bl	8002128 <strobe_delay>
		  light_off(white);
 8002072:	2002      	movs	r0, #2
 8002074:	f7ff fcde 	bl	8001a34 <light_off>
		  light_off(red);
 8002078:	2000      	movs	r0, #0
 800207a:	f7ff fcdb 	bl	8001a34 <light_off>
		  light_off(blue);
 800207e:	2001      	movs	r0, #1
 8002080:	f7ff fcd8 	bl	8001a34 <light_off>
		  strobe_delay();
 8002084:	f000 f850 	bl	8002128 <strobe_delay>
		  break;
 8002088:	e009      	b.n	800209e <main+0xea>
		  light_off(white);
 800208a:	2002      	movs	r0, #2
 800208c:	f7ff fcd2 	bl	8001a34 <light_off>
		  light_off(red);
 8002090:	2000      	movs	r0, #0
 8002092:	f7ff fccf 	bl	8001a34 <light_off>
		  light_off(blue);
 8002096:	2001      	movs	r0, #1
 8002098:	f7ff fccc 	bl	8001a34 <light_off>
		  break;
 800209c:	46c0      	nop			; (mov r8, r8)
	  i=i+1;
 800209e:	e7a4      	b.n	8001fea <main+0x36>
 80020a0:	080022f8 	.word	0x080022f8
 80020a4:	08002308 	.word	0x08002308
 80020a8:	2000001c 	.word	0x2000001c

080020ac <get_mode>:

  }
}

uint8_t get_mode(uint8_t current_mode)
{
 80020ac:	b580      	push	{r7, lr}
 80020ae:	b084      	sub	sp, #16
 80020b0:	af00      	add	r7, sp, #0
 80020b2:	0002      	movs	r2, r0
 80020b4:	1dfb      	adds	r3, r7, #7
 80020b6:	701a      	strb	r2, [r3, #0]
	uint8_t new_mode=current_mode;
 80020b8:	230f      	movs	r3, #15
 80020ba:	18fb      	adds	r3, r7, r3
 80020bc:	1dfa      	adds	r2, r7, #7
 80020be:	7812      	ldrb	r2, [r2, #0]
 80020c0:	701a      	strb	r2, [r3, #0]
	if(get_button_state(mode_1)==1)
 80020c2:	2000      	movs	r0, #0
 80020c4:	f7ff fda4 	bl	8001c10 <get_button_state>
 80020c8:	0003      	movs	r3, r0
 80020ca:	2b01      	cmp	r3, #1
 80020cc:	d104      	bne.n	80020d8 <get_mode+0x2c>
	{
		new_mode=mode_1;
 80020ce:	230f      	movs	r3, #15
 80020d0:	18fb      	adds	r3, r7, r3
 80020d2:	2200      	movs	r2, #0
 80020d4:	701a      	strb	r2, [r3, #0]
 80020d6:	e01f      	b.n	8002118 <get_mode+0x6c>
	}
	else if(get_button_state(mode_2)==1)
 80020d8:	2001      	movs	r0, #1
 80020da:	f7ff fd99 	bl	8001c10 <get_button_state>
 80020de:	0003      	movs	r3, r0
 80020e0:	2b01      	cmp	r3, #1
 80020e2:	d104      	bne.n	80020ee <get_mode+0x42>
	{
		new_mode=mode_2;
 80020e4:	230f      	movs	r3, #15
 80020e6:	18fb      	adds	r3, r7, r3
 80020e8:	2201      	movs	r2, #1
 80020ea:	701a      	strb	r2, [r3, #0]
 80020ec:	e014      	b.n	8002118 <get_mode+0x6c>
	}
	else if(get_button_state(mode_3)==1)
 80020ee:	2002      	movs	r0, #2
 80020f0:	f7ff fd8e 	bl	8001c10 <get_button_state>
 80020f4:	0003      	movs	r3, r0
 80020f6:	2b01      	cmp	r3, #1
 80020f8:	d104      	bne.n	8002104 <get_mode+0x58>
	{
		new_mode=mode_3;
 80020fa:	230f      	movs	r3, #15
 80020fc:	18fb      	adds	r3, r7, r3
 80020fe:	2202      	movs	r2, #2
 8002100:	701a      	strb	r2, [r3, #0]
 8002102:	e009      	b.n	8002118 <get_mode+0x6c>
	}
	else if(get_button_state(mode_4)==1)
 8002104:	2003      	movs	r0, #3
 8002106:	f7ff fd83 	bl	8001c10 <get_button_state>
 800210a:	0003      	movs	r3, r0
 800210c:	2b01      	cmp	r3, #1
 800210e:	d103      	bne.n	8002118 <get_mode+0x6c>
	{
		new_mode=mode_4;
 8002110:	230f      	movs	r3, #15
 8002112:	18fb      	adds	r3, r7, r3
 8002114:	2203      	movs	r2, #3
 8002116:	701a      	strb	r2, [r3, #0]
	}

	return new_mode;
 8002118:	230f      	movs	r3, #15
 800211a:	18fb      	adds	r3, r7, r3
 800211c:	781b      	ldrb	r3, [r3, #0]
}
 800211e:	0018      	movs	r0, r3
 8002120:	46bd      	mov	sp, r7
 8002122:	b004      	add	sp, #16
 8002124:	bd80      	pop	{r7, pc}
	...

08002128 <strobe_delay>:
void strobe_delay()
{
 8002128:	b590      	push	{r4, r7, lr}
 800212a:	b083      	sub	sp, #12
 800212c:	af00      	add	r7, sp, #0
	uint32_t val=65535*adc_read()/255.0+9000;
 800212e:	f7ff fc05 	bl	800193c <adc_read>
 8002132:	0003      	movs	r3, r0
 8002134:	001a      	movs	r2, r3
 8002136:	0013      	movs	r3, r2
 8002138:	041b      	lsls	r3, r3, #16
 800213a:	1a9b      	subs	r3, r3, r2
 800213c:	0018      	movs	r0, r3
 800213e:	f7ff fa1b 	bl	8001578 <__aeabi_i2d>
 8002142:	2200      	movs	r2, #0
 8002144:	4b10      	ldr	r3, [pc, #64]	; (8002188 <strobe_delay+0x60>)
 8002146:	f7fe fb99 	bl	800087c <__aeabi_ddiv>
 800214a:	0003      	movs	r3, r0
 800214c:	000c      	movs	r4, r1
 800214e:	0018      	movs	r0, r3
 8002150:	0021      	movs	r1, r4
 8002152:	2200      	movs	r2, #0
 8002154:	4b0d      	ldr	r3, [pc, #52]	; (800218c <strobe_delay+0x64>)
 8002156:	f7fe f881 	bl	800025c <__aeabi_dadd>
 800215a:	0003      	movs	r3, r0
 800215c:	000c      	movs	r4, r1
 800215e:	0018      	movs	r0, r3
 8002160:	0021      	movs	r1, r4
 8002162:	f7fe f85d 	bl	8000220 <__aeabi_d2uiz>
 8002166:	0003      	movs	r3, r0
 8002168:	603b      	str	r3, [r7, #0]
	int i=0;
 800216a:	2300      	movs	r3, #0
 800216c:	607b      	str	r3, [r7, #4]
	for(; i < val; i++);
 800216e:	e002      	b.n	8002176 <strobe_delay+0x4e>
 8002170:	687b      	ldr	r3, [r7, #4]
 8002172:	3301      	adds	r3, #1
 8002174:	607b      	str	r3, [r7, #4]
 8002176:	687a      	ldr	r2, [r7, #4]
 8002178:	683b      	ldr	r3, [r7, #0]
 800217a:	429a      	cmp	r2, r3
 800217c:	d3f8      	bcc.n	8002170 <strobe_delay+0x48>
}
 800217e:	46c0      	nop			; (mov r8, r8)
 8002180:	46bd      	mov	sp, r7
 8002182:	b003      	add	sp, #12
 8002184:	bd90      	pop	{r4, r7, pc}
 8002186:	46c0      	nop			; (mov r8, r8)
 8002188:	406fe000 	.word	0x406fe000
 800218c:	40c19400 	.word	0x40c19400

08002190 <delay>:
void delay()
{
 8002190:	b580      	push	{r7, lr}
 8002192:	b082      	sub	sp, #8
 8002194:	af00      	add	r7, sp, #0
	uint32_t val=10000;
 8002196:	4b08      	ldr	r3, [pc, #32]	; (80021b8 <delay+0x28>)
 8002198:	603b      	str	r3, [r7, #0]
	int i=0;
 800219a:	2300      	movs	r3, #0
 800219c:	607b      	str	r3, [r7, #4]
	for(; i < val; i++);
 800219e:	e002      	b.n	80021a6 <delay+0x16>
 80021a0:	687b      	ldr	r3, [r7, #4]
 80021a2:	3301      	adds	r3, #1
 80021a4:	607b      	str	r3, [r7, #4]
 80021a6:	687a      	ldr	r2, [r7, #4]
 80021a8:	683b      	ldr	r3, [r7, #0]
 80021aa:	429a      	cmp	r2, r3
 80021ac:	d3f8      	bcc.n	80021a0 <delay+0x10>
}
 80021ae:	46c0      	nop			; (mov r8, r8)
 80021b0:	46bd      	mov	sp, r7
 80021b2:	b002      	add	sp, #8
 80021b4:	bd80      	pop	{r7, pc}
 80021b6:	46c0      	nop			; (mov r8, r8)
 80021b8:	00002710 	.word	0x00002710

080021bc <Reset_Handler>:

  .section .text.Reset_Handler
  .weak Reset_Handler
  .type Reset_Handler, %function
Reset_Handler:
  ldr   r0, =_estack
 80021bc:	480d      	ldr	r0, [pc, #52]	; (80021f4 <LoopForever+0x2>)
  mov   sp, r0          /* set stack pointer */
 80021be:	4685      	mov	sp, r0

/* Copy the data segment initializers from flash to SRAM */
  movs r1, #0
 80021c0:	2100      	movs	r1, #0
  b LoopCopyDataInit
 80021c2:	e003      	b.n	80021cc <LoopCopyDataInit>

080021c4 <CopyDataInit>:

CopyDataInit:
  ldr r3, =_sidata
 80021c4:	4b0c      	ldr	r3, [pc, #48]	; (80021f8 <LoopForever+0x6>)
  ldr r3, [r3, r1]
 80021c6:	585b      	ldr	r3, [r3, r1]
  str r3, [r0, r1]
 80021c8:	5043      	str	r3, [r0, r1]
  adds r1, r1, #4
 80021ca:	3104      	adds	r1, #4

080021cc <LoopCopyDataInit>:

LoopCopyDataInit:
  ldr r0, =_sdata
 80021cc:	480b      	ldr	r0, [pc, #44]	; (80021fc <LoopForever+0xa>)
  ldr r3, =_edata
 80021ce:	4b0c      	ldr	r3, [pc, #48]	; (8002200 <LoopForever+0xe>)
  adds r2, r0, r1
 80021d0:	1842      	adds	r2, r0, r1
  cmp r2, r3
 80021d2:	429a      	cmp	r2, r3
  bcc CopyDataInit
 80021d4:	d3f6      	bcc.n	80021c4 <CopyDataInit>
  ldr r2, =_sbss
 80021d6:	4a0b      	ldr	r2, [pc, #44]	; (8002204 <LoopForever+0x12>)
  b LoopFillZerobss
 80021d8:	e002      	b.n	80021e0 <LoopFillZerobss>

080021da <FillZerobss>:
/* Zero fill the bss segment. */
FillZerobss:
  movs r3, #0
 80021da:	2300      	movs	r3, #0
  str  r3, [r2]
 80021dc:	6013      	str	r3, [r2, #0]
  adds r2, r2, #4
 80021de:	3204      	adds	r2, #4

080021e0 <LoopFillZerobss>:


LoopFillZerobss:
  ldr r3, = _ebss
 80021e0:	4b09      	ldr	r3, [pc, #36]	; (8002208 <LoopForever+0x16>)
  cmp r2, r3
 80021e2:	429a      	cmp	r2, r3
  bcc FillZerobss
 80021e4:	d3f9      	bcc.n	80021da <FillZerobss>

/* Call the clock system intitialization function.*/
  bl  SystemInit
 80021e6:	f000 f813 	bl	8002210 <SystemInit>
/* Call static constructors */
  bl __libc_init_array
 80021ea:	f000 f855 	bl	8002298 <__libc_init_array>
/* Call the application's entry point.*/
  bl main
 80021ee:	f7ff fee1 	bl	8001fb4 <main>

080021f2 <LoopForever>:

LoopForever:
    b LoopForever
 80021f2:	e7fe      	b.n	80021f2 <LoopForever>
  ldr   r0, =_estack
 80021f4:	20002000 	.word	0x20002000
  ldr r3, =_sidata
 80021f8:	080023b8 	.word	0x080023b8
  ldr r0, =_sdata
 80021fc:	20000000 	.word	0x20000000
  ldr r3, =_edata
 8002200:	20000000 	.word	0x20000000
  ldr r2, =_sbss
 8002204:	20000000 	.word	0x20000000
  ldr r3, = _ebss
 8002208:	20000020 	.word	0x20000020

0800220c <ADC1_COMP_IRQHandler>:
 * @retval : None
*/
    .section .text.Default_Handler,"ax",%progbits
Default_Handler:
Infinite_Loop:
  b Infinite_Loop
 800220c:	e7fe      	b.n	800220c <ADC1_COMP_IRQHandler>
	...

08002210 <SystemInit>:
  *         Initialize the default HSI clock source, vector table location and the PLL configuration is reset.
  * @param  None
  * @retval None
  */
void SystemInit(void)
{
 8002210:	b580      	push	{r7, lr}
 8002212:	af00      	add	r7, sp, #0
  /* Reset the RCC clock configuration to the default reset state ------------*/
  /* Set HSION bit */
  RCC->CR |= (uint32_t)0x00000001U;
 8002214:	4b1a      	ldr	r3, [pc, #104]	; (8002280 <SystemInit+0x70>)
 8002216:	4a1a      	ldr	r2, [pc, #104]	; (8002280 <SystemInit+0x70>)
 8002218:	6812      	ldr	r2, [r2, #0]
 800221a:	2101      	movs	r1, #1
 800221c:	430a      	orrs	r2, r1
 800221e:	601a      	str	r2, [r3, #0]

#if defined (STM32F051x8) || defined (STM32F058x8)
  /* Reset SW[1:0], HPRE[3:0], PPRE[2:0], ADCPRE and MCOSEL[2:0] bits */
  RCC->CFGR &= (uint32_t)0xF8FFB80CU;
 8002220:	4b17      	ldr	r3, [pc, #92]	; (8002280 <SystemInit+0x70>)
 8002222:	4a17      	ldr	r2, [pc, #92]	; (8002280 <SystemInit+0x70>)
 8002224:	6852      	ldr	r2, [r2, #4]
 8002226:	4917      	ldr	r1, [pc, #92]	; (8002284 <SystemInit+0x74>)
 8002228:	400a      	ands	r2, r1
 800222a:	605a      	str	r2, [r3, #4]
  /* Reset SW[1:0], HPRE[3:0], PPRE[2:0], ADCPRE, MCOSEL[2:0], MCOPRE[2:0] and PLLNODIV bits */
  RCC->CFGR &= (uint32_t)0x08FFB80CU;
#endif /* STM32F051x8 or STM32F058x8 */
  
  /* Reset HSEON, CSSON and PLLON bits */
  RCC->CR &= (uint32_t)0xFEF6FFFFU;
 800222c:	4b14      	ldr	r3, [pc, #80]	; (8002280 <SystemInit+0x70>)
 800222e:	4a14      	ldr	r2, [pc, #80]	; (8002280 <SystemInit+0x70>)
 8002230:	6812      	ldr	r2, [r2, #0]
 8002232:	4915      	ldr	r1, [pc, #84]	; (8002288 <SystemInit+0x78>)
 8002234:	400a      	ands	r2, r1
 8002236:	601a      	str	r2, [r3, #0]

  /* Reset HSEBYP bit */
  RCC->CR &= (uint32_t)0xFFFBFFFFU;
 8002238:	4b11      	ldr	r3, [pc, #68]	; (8002280 <SystemInit+0x70>)
 800223a:	4a11      	ldr	r2, [pc, #68]	; (8002280 <SystemInit+0x70>)
 800223c:	6812      	ldr	r2, [r2, #0]
 800223e:	4913      	ldr	r1, [pc, #76]	; (800228c <SystemInit+0x7c>)
 8002240:	400a      	ands	r2, r1
 8002242:	601a      	str	r2, [r3, #0]

  /* Reset PLLSRC, PLLXTPRE and PLLMUL[3:0] bits */
  RCC->CFGR &= (uint32_t)0xFFC0FFFFU;
 8002244:	4b0e      	ldr	r3, [pc, #56]	; (8002280 <SystemInit+0x70>)
 8002246:	4a0e      	ldr	r2, [pc, #56]	; (8002280 <SystemInit+0x70>)
 8002248:	6852      	ldr	r2, [r2, #4]
 800224a:	4911      	ldr	r1, [pc, #68]	; (8002290 <SystemInit+0x80>)
 800224c:	400a      	ands	r2, r1
 800224e:	605a      	str	r2, [r3, #4]

  /* Reset PREDIV[3:0] bits */
  RCC->CFGR2 &= (uint32_t)0xFFFFFFF0U;
 8002250:	4b0b      	ldr	r3, [pc, #44]	; (8002280 <SystemInit+0x70>)
 8002252:	4a0b      	ldr	r2, [pc, #44]	; (8002280 <SystemInit+0x70>)
 8002254:	6ad2      	ldr	r2, [r2, #44]	; 0x2c
 8002256:	210f      	movs	r1, #15
 8002258:	438a      	bics	r2, r1
 800225a:	62da      	str	r2, [r3, #44]	; 0x2c
#elif defined (STM32F030x6) || defined (STM32F030x8) || defined (STM32F031x6) || defined (STM32F038xx) || defined (STM32F030xC)
  /* Reset USART1SW[1:0], I2C1SW and ADCSW bits */
  RCC->CFGR3 &= (uint32_t)0xFFFFFEECU;
#elif defined (STM32F051x8) || defined (STM32F058xx)
  /* Reset USART1SW[1:0], I2C1SW, CECSW and ADCSW bits */
  RCC->CFGR3 &= (uint32_t)0xFFFFFEACU;
 800225c:	4b08      	ldr	r3, [pc, #32]	; (8002280 <SystemInit+0x70>)
 800225e:	4a08      	ldr	r2, [pc, #32]	; (8002280 <SystemInit+0x70>)
 8002260:	6b12      	ldr	r2, [r2, #48]	; 0x30
 8002262:	490c      	ldr	r1, [pc, #48]	; (8002294 <SystemInit+0x84>)
 8002264:	400a      	ands	r2, r1
 8002266:	631a      	str	r2, [r3, #48]	; 0x30
#else
 #warning "No target selected"
#endif

  /* Reset HSI14 bit */
  RCC->CR2 &= (uint32_t)0xFFFFFFFEU;
 8002268:	4b05      	ldr	r3, [pc, #20]	; (8002280 <SystemInit+0x70>)
 800226a:	4a05      	ldr	r2, [pc, #20]	; (8002280 <SystemInit+0x70>)
 800226c:	6b52      	ldr	r2, [r2, #52]	; 0x34
 800226e:	2101      	movs	r1, #1
 8002270:	438a      	bics	r2, r1
 8002272:	635a      	str	r2, [r3, #52]	; 0x34

  /* Disable all interrupts */
  RCC->CIR = 0x00000000U;
 8002274:	4b02      	ldr	r3, [pc, #8]	; (8002280 <SystemInit+0x70>)
 8002276:	2200      	movs	r2, #0
 8002278:	609a      	str	r2, [r3, #8]

}
 800227a:	46c0      	nop			; (mov r8, r8)
 800227c:	46bd      	mov	sp, r7
 800227e:	bd80      	pop	{r7, pc}
 8002280:	40021000 	.word	0x40021000
 8002284:	f8ffb80c 	.word	0xf8ffb80c
 8002288:	fef6ffff 	.word	0xfef6ffff
 800228c:	fffbffff 	.word	0xfffbffff
 8002290:	ffc0ffff 	.word	0xffc0ffff
 8002294:	fffffeac 	.word	0xfffffeac

08002298 <__libc_init_array>:
 8002298:	b570      	push	{r4, r5, r6, lr}
 800229a:	2600      	movs	r6, #0
 800229c:	4d0c      	ldr	r5, [pc, #48]	; (80022d0 <__libc_init_array+0x38>)
 800229e:	4c0d      	ldr	r4, [pc, #52]	; (80022d4 <__libc_init_array+0x3c>)
 80022a0:	1b64      	subs	r4, r4, r5
 80022a2:	10a4      	asrs	r4, r4, #2
 80022a4:	42a6      	cmp	r6, r4
 80022a6:	d109      	bne.n	80022bc <__libc_init_array+0x24>
 80022a8:	2600      	movs	r6, #0
 80022aa:	f000 f819 	bl	80022e0 <_init>
 80022ae:	4d0a      	ldr	r5, [pc, #40]	; (80022d8 <__libc_init_array+0x40>)
 80022b0:	4c0a      	ldr	r4, [pc, #40]	; (80022dc <__libc_init_array+0x44>)
 80022b2:	1b64      	subs	r4, r4, r5
 80022b4:	10a4      	asrs	r4, r4, #2
 80022b6:	42a6      	cmp	r6, r4
 80022b8:	d105      	bne.n	80022c6 <__libc_init_array+0x2e>
 80022ba:	bd70      	pop	{r4, r5, r6, pc}
 80022bc:	00b3      	lsls	r3, r6, #2
 80022be:	58eb      	ldr	r3, [r5, r3]
 80022c0:	4798      	blx	r3
 80022c2:	3601      	adds	r6, #1
 80022c4:	e7ee      	b.n	80022a4 <__libc_init_array+0xc>
 80022c6:	00b3      	lsls	r3, r6, #2
 80022c8:	58eb      	ldr	r3, [r5, r3]
 80022ca:	4798      	blx	r3
 80022cc:	3601      	adds	r6, #1
 80022ce:	e7f2      	b.n	80022b6 <__libc_init_array+0x1e>
 80022d0:	080023b0 	.word	0x080023b0
 80022d4:	080023b0 	.word	0x080023b0
 80022d8:	080023b0 	.word	0x080023b0
 80022dc:	080023b4 	.word	0x080023b4

080022e0 <_init>:
 80022e0:	b5f8      	push	{r3, r4, r5, r6, r7, lr}
 80022e2:	46c0      	nop			; (mov r8, r8)
 80022e4:	bcf8      	pop	{r3, r4, r5, r6, r7}
 80022e6:	bc08      	pop	{r3}
 80022e8:	469e      	mov	lr, r3
 80022ea:	4770      	bx	lr

080022ec <_fini>:
 80022ec:	b5f8      	push	{r3, r4, r5, r6, r7, lr}
 80022ee:	46c0      	nop			; (mov r8, r8)
 80022f0:	bcf8      	pop	{r3, r4, r5, r6, r7}
 80022f2:	bc08      	pop	{r3}
 80022f4:	469e      	mov	lr, r3
 80022f6:	4770      	bx	lr
